###############################################################################
#
# IAR C/C++ Compiler V10.30.1.6000 for 8051               19/Jul/2019  12:46:34
# Copyright 2004-2018 IAR Systems AB.
# PC-locked license - IAR Embedded Workbench for 8051
#
#    Core               =  plain
#    Code model         =  banked
#    Data model         =  large
#    Calling convention =  xdata reentrant
#    Constant location  =  data_rom
#    Dptr setup         =  1,16
#                          
#    Source file        =  
#        E:\GitHub\DHT11-end-device\ZStack-CC2530-2.5.1a\Projects\zstack\Samples\ProjectApp\Source\DHT11.c
#    Command line       =  
#        -f C:\Users\Admin\AppData\Local\Temp\EW5FD0.tmp
#        (E:\GitHub\DHT11-end-device\ZStack-CC2530-2.5.1a\Projects\zstack\Samples\ProjectApp\Source\DHT11.c
#        -D NWK_AUTO_POLL -D ZTOOL_P1 -D xMT_TASK -D xMT_SYS_FUNC -D
#        xMT_ZDO_FUNC -D xLCD_SUPPORTED=DEBUG -D HAL_LCD=FALSE -D xPOWER_SAVING
#        -lC
#        E:\GitHub\DHT11-end-device\ZStack-CC2530-2.5.1a\Projects\zstack\Samples\ProjectApp\CC2530DB\EndDeviceEB\List
#        -lA
#        E:\GitHub\DHT11-end-device\ZStack-CC2530-2.5.1a\Projects\zstack\Samples\ProjectApp\CC2530DB\EndDeviceEB\List
#        --diag_suppress Pe001,Pa010 -o
#        E:\GitHub\DHT11-end-device\ZStack-CC2530-2.5.1a\Projects\zstack\Samples\ProjectApp\CC2530DB\EndDeviceEB\Obj
#        -e --debug --core=plain --dptr=16,1 --data_model=large
#        --code_model=banked --calling_convention=xdata_reentrant
#        --place_constants=data_rom --nr_virtual_regs 8 -f
#        E:\GitHub\DHT11-end-device\ZStack-CC2530-2.5.1a\Projects\zstack\Samples\ProjectApp\CC2530DB\..\..\..\Tools\CC2530DB\f8wEndev.cfg
#        (-DCPU32MHZ -DROOT=__near_func -DMAC_CFG_TX_DATA_MAX=3
#        -DMAC_CFG_TX_MAX=6 -DMAC_CFG_RX_MAX=3) -f
#        E:\GitHub\DHT11-end-device\ZStack-CC2530-2.5.1a\Projects\zstack\Samples\ProjectApp\CC2530DB\..\..\..\Tools\CC2530DB\f8wConfig.cfg
#        (-DZIGBEEPRO -DSECURE=0 -DZG_SECURE_DYNAMIC=0 -DREFLECTOR
#        -DDEFAULT_CHANLIST=0x00000800 -DZDAPP_CONFIG_PAN_ID=0xFFFF
#        -DNWK_START_DELAY=100 -DEXTENDED_JOINING_RANDOM_MASK=0x007F
#        -DBEACON_REQUEST_DELAY=100 -DBEACON_REQ_DELAY_MASK=0x00FF
#        -DLINK_STATUS_JITTER_MASK=0x007F -DROUTE_EXPIRY_TIME=30
#        -DAPSC_ACK_WAIT_DURATION_POLLED=3000 -DNWK_INDIRECT_MSG_TIMEOUT=7
#        -DMAX_RREQ_ENTRIES=8 -DAPSC_MAX_FRAME_RETRIES=3
#        -DNWK_MAX_DATA_RETRIES=2 -DMAX_POLL_FAILURE_RETRIES=2 -DMAX_BCAST=9
#        -DAPS_MAX_GROUPS=16 -DMAX_RTG_ENTRIES=40 -DNWK_MAX_BINDING_ENTRIES=4
#        -DMAX_BINDING_CLUSTER_IDS=4 "-DDEFAULT_KEY={0x01, 0x03, 0x05, 0x07,
#        0x09, 0x0B, 0x0D, 0x0F, 0x00, 0x02, 0x04, 0x06, 0x08, 0x0A, 0x0C,
#        0x0D}" -DMAC_MAX_FRAME_SIZE=116 -DZDNWKMGR_MIN_TRANSMISSIONS=20
#        "-DCONST=const __code" -DGENERIC=__generic -DRFD_RCVC_ALWAYS_ON=FALSE
#        -DPOLL_RATE=1000 -DQUEUED_POLL_RATE=100 -DRESPONSE_POLL_RATE=100
#        -DREJOIN_POLL_RATE=440) -I
#        E:\GitHub\DHT11-end-device\ZStack-CC2530-2.5.1a\Projects\zstack\Samples\ProjectApp\CC2530DB\
#        -I
#        E:\GitHub\DHT11-end-device\ZStack-CC2530-2.5.1a\Projects\zstack\Samples\ProjectApp\CC2530DB\..\Source\
#        -I
#        E:\GitHub\DHT11-end-device\ZStack-CC2530-2.5.1a\Projects\zstack\Samples\ProjectApp\CC2530DB\..\..\..\ZMain\TI2530DB\
#        -I
#        E:\GitHub\DHT11-end-device\ZStack-CC2530-2.5.1a\Projects\zstack\Samples\ProjectApp\CC2530DB\..\..\..\..\..\Components\hal\include\
#        -I
#        E:\GitHub\DHT11-end-device\ZStack-CC2530-2.5.1a\Projects\zstack\Samples\ProjectApp\CC2530DB\..\..\..\..\..\Components\hal\target\CC2530EB\
#        -I
#        E:\GitHub\DHT11-end-device\ZStack-CC2530-2.5.1a\Projects\zstack\Samples\ProjectApp\CC2530DB\..\..\..\..\..\Components\mac\include\
#        -I
#        E:\GitHub\DHT11-end-device\ZStack-CC2530-2.5.1a\Projects\zstack\Samples\ProjectApp\CC2530DB\..\..\..\..\..\Components\mac\high_level\
#        -I
#        E:\GitHub\DHT11-end-device\ZStack-CC2530-2.5.1a\Projects\zstack\Samples\ProjectApp\CC2530DB\..\..\..\..\..\Components\mac\low_level\srf04\
#        -I
#        E:\GitHub\DHT11-end-device\ZStack-CC2530-2.5.1a\Projects\zstack\Samples\ProjectApp\CC2530DB\..\..\..\..\..\Components\mac\low_level\srf04\single_chip\
#        -I
#        E:\GitHub\DHT11-end-device\ZStack-CC2530-2.5.1a\Projects\zstack\Samples\ProjectApp\CC2530DB\..\..\..\..\..\Components\mt\
#        -I
#        E:\GitHub\DHT11-end-device\ZStack-CC2530-2.5.1a\Projects\zstack\Samples\ProjectApp\CC2530DB\..\..\..\..\..\Components\osal\include\
#        -I
#        E:\GitHub\DHT11-end-device\ZStack-CC2530-2.5.1a\Projects\zstack\Samples\ProjectApp\CC2530DB\..\..\..\..\..\Components\services\saddr\
#        -I
#        E:\GitHub\DHT11-end-device\ZStack-CC2530-2.5.1a\Projects\zstack\Samples\ProjectApp\CC2530DB\..\..\..\..\..\Components\services\sdata\
#        -I
#        E:\GitHub\DHT11-end-device\ZStack-CC2530-2.5.1a\Projects\zstack\Samples\ProjectApp\CC2530DB\..\..\..\..\..\Components\stack\af\
#        -I
#        E:\GitHub\DHT11-end-device\ZStack-CC2530-2.5.1a\Projects\zstack\Samples\ProjectApp\CC2530DB\..\..\..\..\..\Components\stack\nwk\
#        -I
#        E:\GitHub\DHT11-end-device\ZStack-CC2530-2.5.1a\Projects\zstack\Samples\ProjectApp\CC2530DB\..\..\..\..\..\Components\stack\sapi\
#        -I
#        E:\GitHub\DHT11-end-device\ZStack-CC2530-2.5.1a\Projects\zstack\Samples\ProjectApp\CC2530DB\..\..\..\..\..\Components\stack\sec\
#        -I
#        E:\GitHub\DHT11-end-device\ZStack-CC2530-2.5.1a\Projects\zstack\Samples\ProjectApp\CC2530DB\..\..\..\..\..\Components\stack\sys\
#        -I
#        E:\GitHub\DHT11-end-device\ZStack-CC2530-2.5.1a\Projects\zstack\Samples\ProjectApp\CC2530DB\..\..\..\..\..\Components\stack\zdo\
#        -I
#        E:\GitHub\DHT11-end-device\ZStack-CC2530-2.5.1a\Projects\zstack\Samples\ProjectApp\CC2530DB\..\..\..\..\..\Components\zmac\
#        -I
#        E:\GitHub\DHT11-end-device\ZStack-CC2530-2.5.1a\Projects\zstack\Samples\ProjectApp\CC2530DB\..\..\..\..\..\Components\zmac\f8w\
#        -Ohz --require_prototypes --no_code_motion)
#    Locale             =  Chinese (Simplified)_CHN.936
#    List file          =  
#        E:\GitHub\DHT11-end-device\ZStack-CC2530-2.5.1a\Projects\zstack\Samples\ProjectApp\CC2530DB\EndDeviceEB\List\DHT11.lst
#    Object file        =  
#        E:\GitHub\DHT11-end-device\ZStack-CC2530-2.5.1a\Projects\zstack\Samples\ProjectApp\CC2530DB\EndDeviceEB\Obj\DHT11.r51
#
###############################################################################

E:\GitHub\DHT11-end-device\ZStack-CC2530-2.5.1a\Projects\zstack\Samples\ProjectApp\Source\DHT11.c
      1          #include <ioCC2530.h>

   \                                 In  segment SFR_AN, at 0x80
   \   union <unnamed> volatile __sfr _A_P0
   \                     _A_P0:
   \   000000                DS 1

   \                                 In  segment SFR_AN, at 0xfd
   \   unsigned char volatile __sfr P0DIR
   \                     P0DIR:
   \   000000                DS 1
      2          #include "OnBoard.h"
      3          
      4          typedef unsigned char uchar;
      5          typedef unsigned int  uint;
      6          
      7          #define DATA_PIN P0_7
      8          
      9          void Delay_us(void);
     10          void Delay_10us(void);
     11          void Delay_ms(uint Time);
     12          void COM(void);
     13          void DHT11(void);
     14          
     15          //温湿度定义

   \                                 In  segment XDATA_Z, align 1, keep-with-next
     16          uchar ucharFLAG,uchartemp;
   \                     ucharFLAG:
   \   000000                DS 1
   \   000001                REQUIRE __INIT_XDATA_Z

   \                                 In  segment XDATA_Z, align 1, keep-with-next
   \                     uchartemp:
   \   000000                DS 1
   \   000001                REQUIRE __INIT_XDATA_Z

   \                                 In  segment XDATA_Z, align 1, keep-with-next
     17          uchar shidu_shi,shidu_ge,wendu_shi,wendu_ge=4;
   \                     shidu_shi:
   \   000000                DS 1
   \   000001                REQUIRE __INIT_XDATA_Z

   \                                 In  segment XDATA_Z, align 1, keep-with-next
   \                     shidu_ge:
   \   000000                DS 1
   \   000001                REQUIRE __INIT_XDATA_Z

   \                                 In  segment XDATA_Z, align 1, keep-with-next
   \                     wendu_shi:
   \   000000                DS 1
   \   000001                REQUIRE __INIT_XDATA_Z

   \                                 In  segment XDATA_I, align 1, keep-with-next
   \                     wendu_ge:
   \   000000                DS 1
   \   000001                REQUIRE `?<Initializer for wendu_ge>`
   \   000001                REQUIRE __INIT_XDATA_I

   \                                 In  segment XDATA_Z, align 1, keep-with-next
     18          uchar ucharT_data_H,ucharT_data_L,ucharRH_data_H,ucharRH_data_L,ucharcheckdata;
   \                     ucharT_data_H:
   \   000000                DS 1
   \   000001                REQUIRE __INIT_XDATA_Z

   \                                 In  segment XDATA_Z, align 1, keep-with-next
   \                     ucharT_data_L:
   \   000000                DS 1
   \   000001                REQUIRE __INIT_XDATA_Z

   \                                 In  segment XDATA_Z, align 1, keep-with-next
   \                     ucharRH_data_H:
   \   000000                DS 1
   \   000001                REQUIRE __INIT_XDATA_Z

   \                                 In  segment XDATA_Z, align 1, keep-with-next
   \                     ucharRH_data_L:
   \   000000                DS 1
   \   000001                REQUIRE __INIT_XDATA_Z

   \                                 In  segment XDATA_Z, align 1, keep-with-next
   \                     ucharcheckdata:
   \   000000                DS 1
   \   000001                REQUIRE __INIT_XDATA_Z

   \                                 In  segment XDATA_Z, align 1, keep-with-next
     19          uchar ucharT_data_H_temp,ucharT_data_L_temp,ucharRH_data_H_temp,ucharRH_data_L_temp,ucharcheckdata_temp;
   \                     ucharT_data_H_temp:
   \   000000                DS 1
   \   000001                REQUIRE __INIT_XDATA_Z

   \                                 In  segment XDATA_Z, align 1, keep-with-next
   \                     ucharT_data_L_temp:
   \   000000                DS 1
   \   000001                REQUIRE __INIT_XDATA_Z

   \                                 In  segment XDATA_Z, align 1, keep-with-next
   \                     ucharRH_data_H_temp:
   \   000000                DS 1
   \   000001                REQUIRE __INIT_XDATA_Z

   \                                 In  segment XDATA_Z, align 1, keep-with-next
   \                     ucharRH_data_L_temp:
   \   000000                DS 1
   \   000001                REQUIRE __INIT_XDATA_Z

   \                                 In  segment XDATA_Z, align 1, keep-with-next
   \                     ucharcheckdata_temp:
   \   000000                DS 1
   \   000001                REQUIRE __INIT_XDATA_Z

   \                                 In  segment XDATA_Z, align 1, keep-with-next
     20          uchar ucharcomdata;
   \                     ucharcomdata:
   \   000000                DS 1
   \   000001                REQUIRE __INIT_XDATA_Z
     21          
     22          //延时函数

   \                                 In  segment BANKED_CODE, align 1, keep-with-next
     23          void Delay_us(void) //1 us延时
   \                     Delay_us:
     24          {
   \   000000   C082         PUSH      DPL
   \   000002   C083         PUSH      DPH
   \   000004                ; Saved register size: 2
   \   000004                ; Auto size: 0
     25              MicroWait(1);   
   \   000004                ; Setup parameters for call to function Onboard_wait
   \   000004   7A01         MOV       R2,#0x1
   \   000006                REQUIRE ?Subroutine0
   \   000006                ; // Fall through to label ?Subroutine0
     26          }

   \                                 In  segment BANKED_CODE, align 1, keep-with-next
   \                     ?Subroutine0:
   \   000000   7B00         MOV       R3,#0x0
   \   000002   12....       LCALL     `??Onboard_wait::?relay`; Banked call to: Onboard_wait
   \   000005                REQUIRE ??Subroutine5_0
   \   000005                ; // Fall through to label ??Subroutine5_0

   \                                 In  segment BANKED_CODE, align 1, keep-with-next
   \                     ??Subroutine5_0:
   \   000000   D083         POP       DPH
   \   000002   D082         POP       DPL
   \   000004   02....       LJMP      ?BRET
     27          

   \                                 In  segment BANKED_CODE, align 1, keep-with-next
     28          void Delay_10us(void) //10 us延时
   \                     Delay_10us:
     29          {
   \   000000   C082         PUSH      DPL
   \   000002   C083         PUSH      DPH
   \   000004                ; Saved register size: 2
   \   000004                ; Auto size: 0
     30             MicroWait(10);
   \   000004                ; Setup parameters for call to function Onboard_wait
   \   000004   7A0A         MOV       R2,#0xa
   \   000006   80..         SJMP      ?Subroutine0
     31          }
     32          

   \                                 In  segment BANKED_CODE, align 1, keep-with-next
     33          void Delay_ms(uint Time)//n ms延时
   \                     Delay_ms:
     34          {
   \   000000                REQUIRE ?V0
   \   000000   74F7         MOV       A,#-0x9
   \   000002   12....       LCALL     ?BANKED_ENTER_XDATA
   \   000005                ; Saved register size: 9
   \   000005                ; Auto size: 0
   \   000005   EA           MOV       A,R2
   \   000006   FE           MOV       R6,A
   \   000007   EB           MOV       A,R3
   \   000008   FF           MOV       R7,A
     35            unsigned char i;
     36            while(Time--)
   \                     ??Delay_ms_0:
   \   000009   EE           MOV       A,R6
   \   00000A   F8           MOV       R0,A
   \   00000B   EF           MOV       A,R7
   \   00000C   F9           MOV       R1,A
   \   00000D   E8           MOV       A,R0
   \   00000E   24FF         ADD       A,#-0x1
   \   000010   1E           DEC       R6
   \   000011   E9           MOV       A,R1
   \   000012   34FF         ADDC      A,#-0x1
   \   000014   FF           MOV       R7,A
   \   000015   E8           MOV       A,R0
   \   000016   49           ORL       A,R1
   \   000017   6012         JZ        ??Delay_ms_1
     37            {
     38              for(i=0;i<100;i++)
   \   000019   75..64       MOV       ?V0,#0x64
     39               Delay_10us();
   \                     ??Delay_ms_2:
   \   00001C                ; Setup parameters for call to function Onboard_wait
   \   00001C   7A0A         MOV       R2,#0xa
   \   00001E   7B00         MOV       R3,#0x0
   \   000020   12....       LCALL     `??Onboard_wait::?relay`; Banked call to: Onboard_wait
   \   000023   15..         DEC       ?V0
   \   000025   E5..         MOV       A,?V0
   \   000027   60E0         JZ        ??Delay_ms_0
   \   000029   80F1         SJMP      ??Delay_ms_2
     40            }
     41          }
   \                     ??Delay_ms_1:
   \   00002B                REQUIRE ?Subroutine1
   \   00002B                ; // Fall through to label ?Subroutine1

   \                                 In  segment BANKED_CODE, align 1, keep-with-next
   \                     ?Subroutine1:
   \   000000   7F01         MOV       R7,#0x1
   \   000002   02....       LJMP      ?BANKED_LEAVE_XDATA
     42          
     43          //温湿度传感

   \                                 In  segment BANKED_CODE, align 1, keep-with-next
     44          void COM(void)    // 温湿写入
   \                     COM:
     45          {     
   \   000000   74F7         MOV       A,#-0x9
   \   000002   12....       LCALL     ?BANKED_ENTER_XDATA
   \   000005                ; Saved register size: 9
   \   000005                ; Auto size: 0
     46              uchar i;         
     47              for(i=0;i<8;i++)    
   \   000005   7E08         MOV       R6,#0x8
     48              {
     49                  ucharFLAG=2; 
   \                     ??COM_0:
   \   000007   90....       MOV       DPTR,#ucharFLAG
   \   00000A   7402         MOV       A,#0x2
   \   00000C   F0           MOVX      @DPTR,A
     50                  while((!DATA_PIN)&&ucharFLAG++);
   \                     ??COM_1:
   \   00000D   A287         MOV       C,0x80.7
   \   00000F   4005         JC        ??COM_2
   \   000011   12....       LCALL     ?Subroutine4 & 0xFFFF
   \                     ??CrossCallReturnLabel_2:
   \   000014   70F7         JNZ       ??COM_1
     51                  Delay_10us();
   \                     ??COM_2:
   \   000016                ; Setup parameters for call to function Onboard_wait
   \   000016   12....       LCALL     ?Subroutine3 & 0xFFFF
     52                  Delay_10us();
     53                  Delay_10us();
     54                  uchartemp=0;
   \                     ??CrossCallReturnLabel_0:
   \   000019   90....       MOV       DPTR,#uchartemp
   \   00001C   E4           CLR       A
   \   00001D   F0           MOVX      @DPTR,A
     55                  if(DATA_PIN)uchartemp=1;
   \   00001E   A287         MOV       C,0x80.7
   \   000020   5002         JNC       ??COM_3
   \   000022   04           INC       A
   \   000023   F0           MOVX      @DPTR,A
     56                  ucharFLAG=2;
   \                     ??COM_3:
   \   000024   90....       MOV       DPTR,#ucharFLAG
   \   000027   7402         MOV       A,#0x2
   \   000029   F0           MOVX      @DPTR,A
     57                  while((DATA_PIN)&&ucharFLAG++);   
   \                     ??COM_4:
   \   00002A   A287         MOV       C,0x80.7
   \   00002C   5005         JNC       ??COM_5
   \   00002E   12....       LCALL     ?Subroutine4 & 0xFFFF
   \                     ??CrossCallReturnLabel_3:
   \   000031   70F7         JNZ       ??COM_4
     58                  if(ucharFLAG==1)break;    
   \                     ??COM_5:
   \   000033   E0           MOVX      A,@DPTR
   \   000034   6401         XRL       A,#0x1
   \   000036   6011         JZ        ??COM_6
     59                  ucharcomdata<<=1;
     60                  ucharcomdata|=uchartemp; 
   \   000038   90....       MOV       DPTR,#uchartemp
   \   00003B   E0           MOVX      A,@DPTR
   \   00003C   F8           MOV       R0,A
   \   00003D   90....       MOV       DPTR,#ucharcomdata
   \   000040   E0           MOVX      A,@DPTR
   \   000041   C3           CLR       C
   \   000042   33           RLC       A
   \   000043   48           ORL       A,R0
   \   000044   F0           MOVX      @DPTR,A
     61              }    
   \   000045   1E           DEC       R6
   \   000046   EE           MOV       A,R6
   \   000047   70BE         JNZ       ??COM_0
     62          }
   \                     ??COM_6:
   \   000049   80..         SJMP      ?Subroutine1
   \   00004B                REQUIRE _A_P0

   \                                 In  segment BANKED_CODE, align 1, keep-with-next
   \                     ?Subroutine4:
   \   000000   E0           MOVX      A,@DPTR
   \   000001   F8           MOV       R0,A
   \   000002   7401         MOV       A,#0x1
   \   000004   28           ADD       A,R0
   \   000005   F0           MOVX      @DPTR,A
   \   000006   E8           MOV       A,R0
   \   000007   22           RET

   \                                 In  segment BANKED_CODE, align 1, keep-with-next
   \                     ?Subroutine3:
   \   000000   7A0A         MOV       R2,#0xa
   \   000002   7B00         MOV       R3,#0x0
   \   000004   12....       LCALL     `??Onboard_wait::?relay`; Banked call to: Onboard_wait
   \   000007                ; Setup parameters for call to function Onboard_wait
   \   000007                ; Setup parameters for call to function Onboard_wait
   \   000007   7A0A         MOV       R2,#0xa
   \   000009   7B00         MOV       R3,#0x0
   \   00000B   12....       LCALL     `??Onboard_wait::?relay`; Banked call to: Onboard_wait
   \   00000E                ; Setup parameters for call to function Onboard_wait
   \   00000E                ; Setup parameters for call to function Onboard_wait
   \   00000E   7A0A         MOV       R2,#0xa
   \   000010   7B00         MOV       R3,#0x0
   \   000012   12....       LCALL     `??Onboard_wait::?relay`; Banked call to: Onboard_wait
   \   000015   22           RET
     63          

   \                                 In  segment BANKED_CODE, align 1, keep-with-next
     64          void DHT11(void)   //温湿传感启动
   \                     DHT11:
     65          {
   \   000000   C082         PUSH      DPL
   \   000002   C083         PUSH      DPH
   \   000004                ; Saved register size: 2
   \   000004                ; Auto size: 0
     66              DATA_PIN=0;
   \   000004   C287         CLR       0x80.7
     67              Delay_ms(19);  //>18MS
   \   000006                ; Setup parameters for call to function Delay_ms
   \   000006   7A13         MOV       R2,#0x13
   \   000008   7B00         MOV       R3,#0x0
   \   00000A   12....       LCALL     `??Delay_ms::?relay`; Banked call to: Delay_ms
     68              DATA_PIN=1; 
   \   00000D   D287         SETB      0x80.7
     69              P0DIR &= ~0x80; //重新配置IO口方向
   \   00000F   53FD7F       ANL       0xfd,#0x7f
     70              Delay_10us();
   \   000012                ; Setup parameters for call to function Onboard_wait
   \   000012   12....       LCALL     ?Subroutine3 & 0xFFFF
     71              Delay_10us();                        
     72              Delay_10us();
     73              Delay_10us();  
   \                     ??CrossCallReturnLabel_1:
   \   000015                ; Setup parameters for call to function Onboard_wait
   \   000015   7A0A         MOV       R2,#0xa
   \   000017   7B00         MOV       R3,#0x0
   \   000019   12....       LCALL     `??Onboard_wait::?relay`; Banked call to: Onboard_wait
     74              if(!DATA_PIN) 
   \   00001C   A287         MOV       C,0x80.7
   \   00001E   5003         JNC       $+5
   \   000020   02....       LJMP      ??DHT11_0 & 0xFFFF
     75              {
     76                  ucharFLAG=2; 
   \   000023   90....       MOV       DPTR,#ucharFLAG
   \   000026   7402         MOV       A,#0x2
   \   000028   F0           MOVX      @DPTR,A
     77                  while((!DATA_PIN)&&ucharFLAG++);
   \                     ??DHT11_1:
   \   000029   A287         MOV       C,0x80.7
   \   00002B   4005         JC        ??DHT11_2
   \   00002D   12....       LCALL     ?Subroutine4 & 0xFFFF
   \                     ??CrossCallReturnLabel_4:
   \   000030   70F7         JNZ       ??DHT11_1
     78                  ucharFLAG=2;
   \                     ??DHT11_2:
   \   000032   7402         MOV       A,#0x2
   \   000034   F0           MOVX      @DPTR,A
     79                  while((DATA_PIN)&&ucharFLAG++); 
   \                     ??DHT11_3:
   \   000035   A287         MOV       C,0x80.7
   \   000037   5005         JNC       ??DHT11_4
   \   000039   12....       LCALL     ?Subroutine4 & 0xFFFF
   \                     ??CrossCallReturnLabel_5:
   \   00003C   70F7         JNZ       ??DHT11_3
     80                  COM();
   \                     ??DHT11_4:
   \   00003E                ; Setup parameters for call to function COM
   \   00003E   12....       LCALL     ??Subroutine6_0 & 0xFFFF
     81                  ucharRH_data_H_temp=ucharcomdata;
   \                     ??CrossCallReturnLabel_10:
   \   000041   90....       MOV       DPTR,#ucharRH_data_H_temp
   \   000044   12....       LCALL     ?Subroutine2 & 0xFFFF
     82                  COM();
     83                  ucharRH_data_L_temp=ucharcomdata;
   \                     ??CrossCallReturnLabel_6:
   \   000047   90....       MOV       DPTR,#ucharRH_data_L_temp
   \   00004A   12....       LCALL     ?Subroutine2 & 0xFFFF
     84                  COM();
     85                  ucharT_data_H_temp=ucharcomdata;
   \                     ??CrossCallReturnLabel_7:
   \   00004D   90....       MOV       DPTR,#ucharT_data_H_temp
   \   000050   12....       LCALL     ?Subroutine2 & 0xFFFF
     86                  COM();
     87                  ucharT_data_L_temp=ucharcomdata;
   \                     ??CrossCallReturnLabel_8:
   \   000053   90....       MOV       DPTR,#ucharT_data_L_temp
   \   000056   12....       LCALL     ?Subroutine2 & 0xFFFF
     88                  COM();
     89                  ucharcheckdata_temp=ucharcomdata;
   \                     ??CrossCallReturnLabel_9:
   \   000059   90....       MOV       DPTR,#ucharcheckdata_temp
   \   00005C   F0           MOVX      @DPTR,A
     90                  DATA_PIN=1; 
   \   00005D   D287         SETB      0x80.7
     91                  uchartemp=(ucharT_data_H_temp+ucharT_data_L_temp+ucharRH_data_H_temp+ucharRH_data_L_temp);
   \   00005F   90....       MOV       DPTR,#ucharRH_data_L_temp
   \   000062   E0           MOVX      A,@DPTR
   \   000063   FA           MOV       R2,A
   \   000064   90....       MOV       DPTR,#ucharRH_data_H_temp
   \   000067   E0           MOVX      A,@DPTR
   \   000068   F9           MOV       R1,A
   \   000069   90....       MOV       DPTR,#ucharT_data_L_temp
   \   00006C   E0           MOVX      A,@DPTR
   \   00006D   F8           MOV       R0,A
   \   00006E   90....       MOV       DPTR,#ucharT_data_H_temp
   \   000071   E0           MOVX      A,@DPTR
   \   000072   28           ADD       A,R0
   \   000073   29           ADD       A,R1
   \   000074   2A           ADD       A,R2
   \   000075   90....       MOV       DPTR,#uchartemp
   \   000078   F0           MOVX      @DPTR,A
     92                  if(uchartemp==ucharcheckdata_temp)
   \   000079   F8           MOV       R0,A
   \   00007A   90....       MOV       DPTR,#ucharcheckdata_temp
   \   00007D   E0           MOVX      A,@DPTR
   \   00007E   68           XRL       A,R0
   \   00007F   7028         JNZ       ??DHT11_5
     93                  {
     94                      ucharRH_data_H=ucharRH_data_H_temp;
   \   000081   90....       MOV       DPTR,#ucharRH_data_H_temp
   \   000084   E0           MOVX      A,@DPTR
   \   000085   90....       MOV       DPTR,#ucharRH_data_H
   \   000088   F0           MOVX      @DPTR,A
     95                      ucharRH_data_L=ucharRH_data_L_temp;
   \   000089   90....       MOV       DPTR,#ucharRH_data_L_temp
   \   00008C   E0           MOVX      A,@DPTR
   \   00008D   90....       MOV       DPTR,#ucharRH_data_L
   \   000090   F0           MOVX      @DPTR,A
     96                      ucharT_data_H=ucharT_data_H_temp;
   \   000091   90....       MOV       DPTR,#ucharT_data_H_temp
   \   000094   E0           MOVX      A,@DPTR
   \   000095   90....       MOV       DPTR,#ucharT_data_H
   \   000098   F0           MOVX      @DPTR,A
     97                      ucharT_data_L=ucharT_data_L_temp;
   \   000099   90....       MOV       DPTR,#ucharT_data_L_temp
   \   00009C   E0           MOVX      A,@DPTR
   \   00009D   90....       MOV       DPTR,#ucharT_data_L
   \   0000A0   F0           MOVX      @DPTR,A
     98                      ucharcheckdata=ucharcheckdata_temp;
   \   0000A1   90....       MOV       DPTR,#ucharcheckdata_temp
   \   0000A4   E0           MOVX      A,@DPTR
   \   0000A5   90....       MOV       DPTR,#ucharcheckdata
   \   0000A8   F0           MOVX      @DPTR,A
     99                  }
    100                  wendu_shi=ucharT_data_H/10; 
   \                     ??DHT11_5:
   \   0000A9   75F00A       MOV       B,#0xa
   \   0000AC   90....       MOV       DPTR,#ucharT_data_H
   \   0000AF   E0           MOVX      A,@DPTR
   \   0000B0   84           DIV       AB
   \   0000B1   90....       MOV       DPTR,#wendu_shi
   \   0000B4   F0           MOVX      @DPTR,A
    101                  wendu_ge=ucharT_data_H%10;
   \   0000B5   90....       MOV       DPTR,#ucharT_data_H
   \   0000B8   E0           MOVX      A,@DPTR
   \   0000B9   75F00A       MOV       B,#0xa
   \   0000BC   84           DIV       AB
   \   0000BD   E5F0         MOV       A,B
   \   0000BF   90....       MOV       DPTR,#wendu_ge
   \   0000C2   F0           MOVX      @DPTR,A
    102                  
    103                  shidu_shi=ucharRH_data_H/10; 
   \   0000C3   75F00A       MOV       B,#0xa
   \   0000C6   90....       MOV       DPTR,#ucharRH_data_H
   \   0000C9   E0           MOVX      A,@DPTR
   \   0000CA   84           DIV       AB
   \   0000CB   90....       MOV       DPTR,#shidu_shi
   \   0000CE   F0           MOVX      @DPTR,A
    104                  shidu_ge=ucharRH_data_H%10;        
   \   0000CF   90....       MOV       DPTR,#ucharRH_data_H
   \   0000D2   E0           MOVX      A,@DPTR
   \   0000D3   75F00A       MOV       B,#0xa
   \   0000D6   84           DIV       AB
   \   0000D7   E5F0         MOV       A,B
   \   0000D9   800D         SJMP      ??DHT11_6
    105              } 
    106              else //没用成功读取，返回0
    107              {
    108                  wendu_shi=0; 
   \                     ??DHT11_0:
   \   0000DB   90....       MOV       DPTR,#wendu_shi
   \   0000DE   E4           CLR       A
   \   0000DF   F0           MOVX      @DPTR,A
    109                  wendu_ge=0;
   \   0000E0   90....       MOV       DPTR,#wendu_ge
   \   0000E3   F0           MOVX      @DPTR,A
    110                  
    111                  shidu_shi=0; 
   \   0000E4   90....       MOV       DPTR,#shidu_shi
   \   0000E7   F0           MOVX      @DPTR,A
    112                  shidu_ge=0;  
   \                     ??DHT11_6:
   \   0000E8   90....       MOV       DPTR,#shidu_ge
   \   0000EB   F0           MOVX      @DPTR,A
    113              } 
    114              
    115              P0DIR |= 0x80; //IO口需要重新配置 
   \   0000EC   43FD80       ORL       0xfd,#0x80
    116          }
   \   0000EF   02....       LJMP      ??Subroutine5_0 & 0xFFFF
   \   0000F2                REQUIRE _A_P0
   \   0000F2                REQUIRE P0DIR

   \                                 In  segment BANKED_CODE, align 1, keep-with-next
   \                     ?Subroutine2:
   \   000000   F0           MOVX      @DPTR,A
   \   000001                ; Setup parameters for call to function COM
   \   000001                ; Setup parameters for call to function COM
   \   000001                ; Setup parameters for call to function COM
   \   000001                ; Setup parameters for call to function COM
   \   000001                REQUIRE ??Subroutine6_0
   \   000001                ; // Fall through to label ??Subroutine6_0

   \                                 In  segment BANKED_CODE, align 1, keep-with-next
   \                     ??Subroutine6_0:
   \   000000   12....       LCALL     `??COM::?relay`  ; Banked call to: COM
   \   000003   90....       MOV       DPTR,#ucharcomdata
   \   000006   E0           MOVX      A,@DPTR
   \   000007   22           RET

   \                                 In  segment XDATA_ID, align 1, keep-with-next
   \                     `?<Initializer for wendu_ge>`:
   \   000000   04           DB 4

   Maximum stack usage in bytes:

   ISTACK XSTACK Function
   ------ ------ --------
      0      9   COM
        0      9   -> Onboard_wait
      2      0   DHT11
        2      0   -> COM
        2      0   -> Delay_ms
        2      0   -> Onboard_wait
      2      0   Delay_10us
        2      0   -> Onboard_wait
      0      9   Delay_ms
        0      9   -> Onboard_wait
      2      0   Delay_us
        2      0   -> Onboard_wait


   Segment part sizes:

   Bytes  Function/Label
   -----  --------------
       1  ?<Initializer for wendu_ge>
       7  ??Subroutine5_0
       8  ??Subroutine6_0
       5  ?Subroutine0
       5  ?Subroutine1
       1  ?Subroutine2
      22  ?Subroutine3
       8  ?Subroutine4
      75  COM
     242  DHT11
       8  Delay_10us
      43  Delay_ms
       6  Delay_us
       1  P0DIR
       1  _A_P0
       1  shidu_ge
       1  shidu_shi
       1  ucharFLAG
       1  ucharRH_data_H
       1  ucharRH_data_H_temp
       1  ucharRH_data_L
       1  ucharRH_data_L_temp
       1  ucharT_data_H
       1  ucharT_data_H_temp
       1  ucharT_data_L
       1  ucharT_data_L_temp
       1  ucharcheckdata
       1  ucharcheckdata_temp
       1  ucharcomdata
       1  uchartemp
       1  wendu_ge
       1  wendu_shi
      30  -- Other

 
 430 bytes in segment BANKED_CODE
  30 bytes in segment BANK_RELAYS
   2 bytes in segment SFR_AN
   1 byte  in segment XDATA_I
   1 byte  in segment XDATA_ID
  16 bytes in segment XDATA_Z
 
  31 bytes of CODE     memory
   0 bytes of DATA     memory (+ 2 bytes shared)
 430 bytes of HUGECODE memory
  17 bytes of XDATA    memory

Errors: none
Warnings: none
