///////////////////////////////////////////////////////////////////////////////
//
// IAR C/C++ Compiler V10.30.1.6000 for 8051              16/Jul/2019  19:15:48
// Copyright 2004-2018 IAR Systems AB.
// PC-locked license - IAR Embedded Workbench for 8051
//
//    Core               =  plain
//    Code model         =  banked
//    Data model         =  large
//    Calling convention =  xdata reentrant
//    Constant location  =  data_rom
//    Dptr setup         =  1,16
//                          
//    Source file        =  
//        E:\GitHub\zjh\ZStack-CC2530-2.5.1a\Projects\zstack\Samples\ProjectApp\Source\ProjectApp.c
//    Command line       =  
//        -f C:\Users\Admin\AppData\Local\Temp\EWB10E.tmp
//        (E:\GitHub\zjh\ZStack-CC2530-2.5.1a\Projects\zstack\Samples\ProjectApp\Source\ProjectApp.c
//        -D NWK_AUTO_POLL -D ZTOOL_P1 -D MT_TASK -D MT_SYS_FUNC -D MT_ZDO_FUNC
//        -D xLCD_SUPPORTED=DEBUG -D HAL_LCD=FALSE -D xPOWER_SAVING -lC
//        E:\GitHub\zjh\ZStack-CC2530-2.5.1a\Projects\zstack\Samples\ProjectApp\CC2530DB\EndDeviceEB\List
//        -lA
//        E:\GitHub\zjh\ZStack-CC2530-2.5.1a\Projects\zstack\Samples\ProjectApp\CC2530DB\EndDeviceEB\List
//        --diag_suppress Pe001,Pa010 -o
//        E:\GitHub\zjh\ZStack-CC2530-2.5.1a\Projects\zstack\Samples\ProjectApp\CC2530DB\EndDeviceEB\Obj
//        -e --debug --core=plain --dptr=16,1 --data_model=large
//        --code_model=banked --calling_convention=xdata_reentrant
//        --place_constants=data_rom --nr_virtual_regs 8 -f
//        E:\GitHub\zjh\ZStack-CC2530-2.5.1a\Projects\zstack\Samples\ProjectApp\CC2530DB\..\..\..\Tools\CC2530DB\f8wEndev.cfg
//        (-DCPU32MHZ -DROOT=__near_func -DMAC_CFG_TX_DATA_MAX=3
//        -DMAC_CFG_TX_MAX=6 -DMAC_CFG_RX_MAX=3) -f
//        E:\GitHub\zjh\ZStack-CC2530-2.5.1a\Projects\zstack\Samples\ProjectApp\CC2530DB\..\..\..\Tools\CC2530DB\f8wConfig.cfg
//        (-DZIGBEEPRO -DSECURE=0 -DZG_SECURE_DYNAMIC=0 -DREFLECTOR
//        -DDEFAULT_CHANLIST=0x00000800 -DZDAPP_CONFIG_PAN_ID=0xFFFF
//        -DNWK_START_DELAY=100 -DEXTENDED_JOINING_RANDOM_MASK=0x007F
//        -DBEACON_REQUEST_DELAY=100 -DBEACON_REQ_DELAY_MASK=0x00FF
//        -DLINK_STATUS_JITTER_MASK=0x007F -DROUTE_EXPIRY_TIME=30
//        -DAPSC_ACK_WAIT_DURATION_POLLED=3000 -DNWK_INDIRECT_MSG_TIMEOUT=7
//        -DMAX_RREQ_ENTRIES=8 -DAPSC_MAX_FRAME_RETRIES=3
//        -DNWK_MAX_DATA_RETRIES=2 -DMAX_POLL_FAILURE_RETRIES=2 -DMAX_BCAST=9
//        -DAPS_MAX_GROUPS=16 -DMAX_RTG_ENTRIES=40 -DNWK_MAX_BINDING_ENTRIES=4
//        -DMAX_BINDING_CLUSTER_IDS=4 "-DDEFAULT_KEY={0x01, 0x03, 0x05, 0x07,
//        0x09, 0x0B, 0x0D, 0x0F, 0x00, 0x02, 0x04, 0x06, 0x08, 0x0A, 0x0C,
//        0x0D}" -DMAC_MAX_FRAME_SIZE=116 -DZDNWKMGR_MIN_TRANSMISSIONS=20
//        "-DCONST=const __code" -DGENERIC=__generic -DRFD_RCVC_ALWAYS_ON=FALSE
//        -DPOLL_RATE=1000 -DQUEUED_POLL_RATE=100 -DRESPONSE_POLL_RATE=100
//        -DREJOIN_POLL_RATE=440) -I
//        E:\GitHub\zjh\ZStack-CC2530-2.5.1a\Projects\zstack\Samples\ProjectApp\CC2530DB\
//        -I
//        E:\GitHub\zjh\ZStack-CC2530-2.5.1a\Projects\zstack\Samples\ProjectApp\CC2530DB\..\Source\
//        -I
//        E:\GitHub\zjh\ZStack-CC2530-2.5.1a\Projects\zstack\Samples\ProjectApp\CC2530DB\..\..\..\ZMain\TI2530DB\
//        -I
//        E:\GitHub\zjh\ZStack-CC2530-2.5.1a\Projects\zstack\Samples\ProjectApp\CC2530DB\..\..\..\..\..\Components\hal\include\
//        -I
//        E:\GitHub\zjh\ZStack-CC2530-2.5.1a\Projects\zstack\Samples\ProjectApp\CC2530DB\..\..\..\..\..\Components\hal\target\CC2530EB\
//        -I
//        E:\GitHub\zjh\ZStack-CC2530-2.5.1a\Projects\zstack\Samples\ProjectApp\CC2530DB\..\..\..\..\..\Components\mac\include\
//        -I
//        E:\GitHub\zjh\ZStack-CC2530-2.5.1a\Projects\zstack\Samples\ProjectApp\CC2530DB\..\..\..\..\..\Components\mac\high_level\
//        -I
//        E:\GitHub\zjh\ZStack-CC2530-2.5.1a\Projects\zstack\Samples\ProjectApp\CC2530DB\..\..\..\..\..\Components\mac\low_level\srf04\
//        -I
//        E:\GitHub\zjh\ZStack-CC2530-2.5.1a\Projects\zstack\Samples\ProjectApp\CC2530DB\..\..\..\..\..\Components\mac\low_level\srf04\single_chip\
//        -I
//        E:\GitHub\zjh\ZStack-CC2530-2.5.1a\Projects\zstack\Samples\ProjectApp\CC2530DB\..\..\..\..\..\Components\mt\
//        -I
//        E:\GitHub\zjh\ZStack-CC2530-2.5.1a\Projects\zstack\Samples\ProjectApp\CC2530DB\..\..\..\..\..\Components\osal\include\
//        -I
//        E:\GitHub\zjh\ZStack-CC2530-2.5.1a\Projects\zstack\Samples\ProjectApp\CC2530DB\..\..\..\..\..\Components\services\saddr\
//        -I
//        E:\GitHub\zjh\ZStack-CC2530-2.5.1a\Projects\zstack\Samples\ProjectApp\CC2530DB\..\..\..\..\..\Components\services\sdata\
//        -I
//        E:\GitHub\zjh\ZStack-CC2530-2.5.1a\Projects\zstack\Samples\ProjectApp\CC2530DB\..\..\..\..\..\Components\stack\af\
//        -I
//        E:\GitHub\zjh\ZStack-CC2530-2.5.1a\Projects\zstack\Samples\ProjectApp\CC2530DB\..\..\..\..\..\Components\stack\nwk\
//        -I
//        E:\GitHub\zjh\ZStack-CC2530-2.5.1a\Projects\zstack\Samples\ProjectApp\CC2530DB\..\..\..\..\..\Components\stack\sapi\
//        -I
//        E:\GitHub\zjh\ZStack-CC2530-2.5.1a\Projects\zstack\Samples\ProjectApp\CC2530DB\..\..\..\..\..\Components\stack\sec\
//        -I
//        E:\GitHub\zjh\ZStack-CC2530-2.5.1a\Projects\zstack\Samples\ProjectApp\CC2530DB\..\..\..\..\..\Components\stack\sys\
//        -I
//        E:\GitHub\zjh\ZStack-CC2530-2.5.1a\Projects\zstack\Samples\ProjectApp\CC2530DB\..\..\..\..\..\Components\stack\zdo\
//        -I
//        E:\GitHub\zjh\ZStack-CC2530-2.5.1a\Projects\zstack\Samples\ProjectApp\CC2530DB\..\..\..\..\..\Components\zmac\
//        -I
//        E:\GitHub\zjh\ZStack-CC2530-2.5.1a\Projects\zstack\Samples\ProjectApp\CC2530DB\..\..\..\..\..\Components\zmac\f8w\
//        -Ohz --require_prototypes --no_code_motion)
//    Locale             =  Chinese (Simplified)_CHN.936
//    List file          =  
//        E:\GitHub\zjh\ZStack-CC2530-2.5.1a\Projects\zstack\Samples\ProjectApp\CC2530DB\EndDeviceEB\List\ProjectApp.s51
//
///////////////////////////////////////////////////////////////////////////////

        NAME ProjectApp

        RTMODEL "__SystemLibrary", "CLib"
        RTMODEL "__calling_convention", "xdata_reentrant"
        RTMODEL "__code_model", "banked"
        RTMODEL "__core", "plain"
        RTMODEL "__data_model", "large"
        RTMODEL "__dptr_size", "16"
        RTMODEL "__extended_stack", "disabled"
        RTMODEL "__location_for_constants", "data"
        RTMODEL "__number_of_dptrs", "1"
        RTMODEL "__register_banks", "*"
        RTMODEL "__rt_version", "1"

        RSEG DOVERLAY:DATA:NOROOT(0)
        RSEG IOVERLAY:IDATA:NOROOT(0)
        RSEG ISTACK:IDATA:NOROOT(0)
        RSEG PSTACK:XDATA:NOROOT(0)
        RSEG XSTACK:XDATA:NOROOT(0)

        EXTERN ?V0
        EXTERN ?V1
        EXTERN ?V2
        EXTERN ?V3
        EXTERN ?ALLOC_XSTACK8
        EXTERN ?BANKED_ENTER_XDATA
        EXTERN ?BANKED_LEAVE_XDATA
        EXTERN ?BDISPATCH
        EXTERN ?DEALLOC_XSTACK8
        EXTERN ?MOVE_LONG8_XDATA_XDATA
        EXTERN ?PUSH_XSTACK8_X_TWO
        EXTERN ?PUSH_XSTACK_I_ONE
        EXTERN ?PUSH_XSTACK_I_TWO
        EXTERN ?XSP
        EXTERN ?XSTACK_DISP0_8
        EXTERN ?XSTACK_DISP100_8
        EXTERN ?XSTACK_DISP101_8
        EXTERN ?XSTACK_DISP102_8
        EXTERN __INIT_XDATA_Z

        FUNCTION `??ProjectApp_HandleKeys::?relay`,0203H
        PUBLIC `??ProjectApp_Init::?relay`
        FUNCTION `??ProjectApp_Init::?relay`,0203H
        PUBLIC `??ProjectApp_ProcessEvent::?relay`
        FUNCTION `??ProjectApp_ProcessEvent::?relay`,0203H
        PUBLIC ProjectApp_ClusterList
        PUBLIC ProjectApp_DstAddr
        FUNCTION ProjectApp_HandleKeys,0a1203H
        ARGFRAME XSTACK, 24, STACK
        ARGFRAME IOVERLAY, 0, STATIC
        ARGFRAME DOVERLAY, 0, STATIC
        LOCFRAME XSTACK, 41, STACK
        PUBLIC ProjectApp_Init
        FUNCTION ProjectApp_Init,021203H
        ARGFRAME XSTACK, 0, STACK
        LOCFRAME XSTACK, 9, STACK
        PUBLIC ProjectApp_NwkState
        PUBLIC ProjectApp_ProcessEvent
        FUNCTION ProjectApp_ProcessEvent,0a1203H
        ARGFRAME XSTACK, 0, STACK
        LOCFRAME XSTACK, 33, STACK
        PUBLIC ProjectApp_SimpleDesc
        PUBLIC ProjectApp_TaskID
        PUBLIC ProjectApp_TransID
        PUBLIC ProjectApp_epDesc
        
          CFI Names cfiNames0
          CFI StackFrame CFA_SP SP IDATA
          CFI StackFrame CFA_PSP16 PSP16 XDATA
          CFI StackFrame CFA_XSP16 XSP16 XDATA
          CFI StaticOverlayFrame CFA_IOVERLAY IOVERLAY
          CFI StaticOverlayFrame CFA_DOVERLAY DOVERLAY
          CFI Resource `PSW.CY`:1, `B.BR0`:1, `B.BR1`:1, `B.BR2`:1, `B.BR3`:1
          CFI Resource `B.BR4`:1, `B.BR5`:1, `B.BR6`:1, `B.BR7`:1, `VB.BR8`:1
          CFI Resource `VB.BR9`:1, `VB.BR10`:1, `VB.BR11`:1, `VB.BR12`:1
          CFI Resource `VB.BR13`:1, `VB.BR14`:1, `VB.BR15`:1, VB:8, B:8, A:8
          CFI Resource PSW:8, DPL0:8, DPH0:8, R0:8, R1:8, R2:8, R3:8, R4:8, R5:8
          CFI Resource R6:8, R7:8, V0:8, V1:8, V2:8, V3:8, V4:8, V5:8, V6:8, V7:8
          CFI Resource SP:8, PSPH:8, PSPL:8, PSP16:16, XSPH:8, XSPL:8, XSP16:16
          CFI VirtualResource ?RET:24
          CFI Resource ?BRET_EXT:8
          CFI VirtualResource ?RET_HIGH:8, ?RET_LOW:8
          CFI ResourceParts PSP16 PSPH, PSPL
          CFI ResourceParts XSP16 XSPH, XSPL
          CFI ResourceParts ?RET ?BRET_EXT, ?RET_HIGH, ?RET_LOW
          CFI EndNames cfiNames0
        
          CFI Common cfiCommon0 Using cfiNames0
          CFI CodeAlign 1
          CFI DataAlign -1
          CFI ReturnAddress ?RET CODE
          CFI CFA_DOVERLAY Used
          CFI CFA_IOVERLAY Used
          CFI CFA_SP SP+-3
          CFI CFA_PSP16 PSP16+0
          CFI CFA_XSP16 XSP16+0
          CFI `PSW.CY` SameValue
          CFI `B.BR0` SameValue
          CFI `B.BR1` SameValue
          CFI `B.BR2` SameValue
          CFI `B.BR3` SameValue
          CFI `B.BR4` SameValue
          CFI `B.BR5` SameValue
          CFI `B.BR6` SameValue
          CFI `B.BR7` SameValue
          CFI `VB.BR8` SameValue
          CFI `VB.BR9` SameValue
          CFI `VB.BR10` SameValue
          CFI `VB.BR11` SameValue
          CFI `VB.BR12` SameValue
          CFI `VB.BR13` SameValue
          CFI `VB.BR14` SameValue
          CFI `VB.BR15` SameValue
          CFI VB SameValue
          CFI B Undefined
          CFI A Undefined
          CFI PSW SameValue
          CFI DPL0 SameValue
          CFI DPH0 SameValue
          CFI R0 Undefined
          CFI R1 Undefined
          CFI R2 Undefined
          CFI R3 Undefined
          CFI R4 Undefined
          CFI R5 Undefined
          CFI R6 SameValue
          CFI R7 SameValue
          CFI V0 SameValue
          CFI V1 SameValue
          CFI V2 SameValue
          CFI V3 SameValue
          CFI V4 SameValue
          CFI V5 SameValue
          CFI V6 SameValue
          CFI V7 SameValue
          CFI PSPH Undefined
          CFI PSPL Undefined
          CFI XSPH Undefined
          CFI XSPL Undefined
          CFI ?RET Concat
          CFI ?BRET_EXT Frame(CFA_SP, 3)
          CFI ?RET_HIGH Frame(CFA_SP, 2)
          CFI ?RET_LOW Frame(CFA_SP, 1)
          CFI EndCommon cfiCommon0
        
        
          CFI Common cfiCommon1 Using cfiNames0
          CFI CodeAlign 1
          CFI DataAlign -1
          CFI ReturnAddress ?RET CODE
          CFI CFA_DOVERLAY Used
          CFI CFA_IOVERLAY Used
          CFI CFA_SP SP+-2
          CFI CFA_PSP16 PSP16+0
          CFI CFA_XSP16 XSP16+0
          CFI `PSW.CY` SameValue
          CFI `B.BR0` SameValue
          CFI `B.BR1` SameValue
          CFI `B.BR2` SameValue
          CFI `B.BR3` SameValue
          CFI `B.BR4` SameValue
          CFI `B.BR5` SameValue
          CFI `B.BR6` SameValue
          CFI `B.BR7` SameValue
          CFI `VB.BR8` SameValue
          CFI `VB.BR9` SameValue
          CFI `VB.BR10` SameValue
          CFI `VB.BR11` SameValue
          CFI `VB.BR12` SameValue
          CFI `VB.BR13` SameValue
          CFI `VB.BR14` SameValue
          CFI `VB.BR15` SameValue
          CFI VB SameValue
          CFI B SameValue
          CFI A SameValue
          CFI PSW SameValue
          CFI DPL0 SameValue
          CFI DPH0 SameValue
          CFI R0 SameValue
          CFI R1 SameValue
          CFI R2 SameValue
          CFI R3 SameValue
          CFI R4 SameValue
          CFI R5 SameValue
          CFI R6 SameValue
          CFI R7 SameValue
          CFI V0 SameValue
          CFI V1 SameValue
          CFI V2 SameValue
          CFI V3 SameValue
          CFI V4 SameValue
          CFI V5 SameValue
          CFI V6 SameValue
          CFI V7 SameValue
          CFI PSPH Undefined
          CFI PSPL Undefined
          CFI XSPH Undefined
          CFI XSPL Undefined
          CFI ?RET Concat
          CFI ?BRET_EXT SameValue
          CFI ?RET_HIGH Frame(CFA_SP, 2)
          CFI ?RET_LOW Frame(CFA_SP, 1)
          CFI EndCommon cfiCommon1
        
AF_DataRequest      SYMBOL "AF_DataRequest"
`??AF_DataRequest::?relay` SYMBOL "?relay", AF_DataRequest
HalLedSet           SYMBOL "HalLedSet"
`??HalLedSet::?relay` SYMBOL "?relay", HalLedSet
NLME_GetShortAddr   SYMBOL "NLME_GetShortAddr"
`??NLME_GetShortAddr::?relay` SYMBOL "?relay", NLME_GetShortAddr
RegisterForKeys     SYMBOL "RegisterForKeys"
`??RegisterForKeys::?relay` SYMBOL "?relay", RegisterForKeys
USER_Uart0_Init     SYMBOL "USER_Uart0_Init"
`??USER_Uart0_Init::?relay` SYMBOL "?relay", USER_Uart0_Init
ZDO_RegisterForZDOMsg SYMBOL "ZDO_RegisterForZDOMsg"
`??ZDO_RegisterForZDOMsg::?relay` SYMBOL "?relay", ZDO_RegisterForZDOMsg
ZDP_EndDeviceBindReq SYMBOL "ZDP_EndDeviceBindReq"
`??ZDP_EndDeviceBindReq::?relay` SYMBOL "?relay", ZDP_EndDeviceBindReq
ZDP_MatchDescReq    SYMBOL "ZDP_MatchDescReq"
`??ZDP_MatchDescReq::?relay` SYMBOL "?relay", ZDP_MatchDescReq
afRegister          SYMBOL "afRegister"
`??afRegister::?relay` SYMBOL "?relay", afRegister
osal_msg_deallocate SYMBOL "osal_msg_deallocate"
`??osal_msg_deallocate::?relay` SYMBOL "?relay", osal_msg_deallocate
osal_msg_receive    SYMBOL "osal_msg_receive"
`??osal_msg_receive::?relay` SYMBOL "?relay", osal_msg_receive
osal_start_timerEx  SYMBOL "osal_start_timerEx"
`??osal_start_timerEx::?relay` SYMBOL "?relay", osal_start_timerEx
osal_strlen         SYMBOL "osal_strlen"
`??osal_strlen::?relay` SYMBOL "?relay", osal_strlen
printf              SYMBOL "printf"
`??printf::?relay`  SYMBOL "?relay", printf
user_state_change   SYMBOL "user_state_change"
`??user_state_change::?relay` SYMBOL "?relay", user_state_change
ProjectApp_Init     SYMBOL "ProjectApp_Init"
`??ProjectApp_Init::?relay` SYMBOL "?relay", ProjectApp_Init
ProjectApp_ProcessEvent SYMBOL "ProjectApp_ProcessEvent"
`??ProjectApp_ProcessEvent::?relay` SYMBOL "?relay", ProjectApp_ProcessEvent

        EXTERN `??AF_DataRequest::?relay`
        FUNCTION `??AF_DataRequest::?relay`,00H
        EXTERN `??HalLedSet::?relay`
        FUNCTION `??HalLedSet::?relay`,00H
        EXTERN `??NLME_GetShortAddr::?relay`
        FUNCTION `??NLME_GetShortAddr::?relay`,00H
        EXTERN `??RegisterForKeys::?relay`
        FUNCTION `??RegisterForKeys::?relay`,00H
        EXTERN `??USER_Uart0_Init::?relay`
        FUNCTION `??USER_Uart0_Init::?relay`,00H
        EXTERN `??ZDO_RegisterForZDOMsg::?relay`
        FUNCTION `??ZDO_RegisterForZDOMsg::?relay`,00H
        EXTERN `??ZDP_EndDeviceBindReq::?relay`
        FUNCTION `??ZDP_EndDeviceBindReq::?relay`,00H
        EXTERN `??ZDP_MatchDescReq::?relay`
        FUNCTION `??ZDP_MatchDescReq::?relay`,00H
        EXTERN `??afRegister::?relay`
        FUNCTION `??afRegister::?relay`,00H
        EXTERN `??osal_msg_deallocate::?relay`
        FUNCTION `??osal_msg_deallocate::?relay`,00H
        EXTERN `??osal_msg_receive::?relay`
        FUNCTION `??osal_msg_receive::?relay`,00H
        EXTERN `??osal_start_timerEx::?relay`
        FUNCTION `??osal_start_timerEx::?relay`,00H
        EXTERN `??osal_strlen::?relay`
        FUNCTION `??osal_strlen::?relay`,00H
        EXTERN `??printf::?relay`
        FUNCTION `??printf::?relay`,00H
        EXTERN `??user_state_change::?relay`
        FUNCTION `??user_state_change::?relay`,00H
        EXTERN AF_DataRequest
        FUNCTION AF_DataRequest,0202H
        ARGFRAME ISTACK, 0, STACK
        ARGFRAME PSTACK, 0, STACK
        ARGFRAME XSTACK, 41, STACK
        ARGFRAME IOVERLAY, 0, STATIC
        ARGFRAME DOVERLAY, 0, STATIC
        EXTERN HalLedSet
        FUNCTION HalLedSet,0202H
        ARGFRAME ISTACK, 0, STACK
        ARGFRAME PSTACK, 0, STACK
        ARGFRAME XSTACK, 32, STACK
        ARGFRAME IOVERLAY, 0, STATIC
        ARGFRAME DOVERLAY, 0, STATIC
        EXTERN NLME_GetShortAddr
        FUNCTION NLME_GetShortAddr,0202H
        ARGFRAME ISTACK, 0, STACK
        ARGFRAME PSTACK, 0, STACK
        ARGFRAME XSTACK, 32, STACK
        ARGFRAME IOVERLAY, 0, STATIC
        ARGFRAME DOVERLAY, 0, STATIC
        EXTERN RegisterForKeys
        FUNCTION RegisterForKeys,0202H
        ARGFRAME ISTACK, 0, STACK
        ARGFRAME PSTACK, 0, STACK
        ARGFRAME XSTACK, 9, STACK
        ARGFRAME IOVERLAY, 0, STATIC
        ARGFRAME DOVERLAY, 0, STATIC
        EXTERN USER_Uart0_Init
        FUNCTION USER_Uart0_Init,0202H
        ARGFRAME ISTACK, 0, STACK
        ARGFRAME PSTACK, 0, STACK
        ARGFRAME XSTACK, 9, STACK
        ARGFRAME IOVERLAY, 0, STATIC
        ARGFRAME DOVERLAY, 0, STATIC
        EXTERN ZDO_RegisterForZDOMsg
        FUNCTION ZDO_RegisterForZDOMsg,0202H
        ARGFRAME ISTACK, 0, STACK
        ARGFRAME PSTACK, 0, STACK
        ARGFRAME XSTACK, 9, STACK
        ARGFRAME IOVERLAY, 0, STATIC
        ARGFRAME DOVERLAY, 0, STATIC
        EXTERN ZDP_EndDeviceBindReq
        FUNCTION ZDP_EndDeviceBindReq,0202H
        ARGFRAME ISTACK, 0, STACK
        ARGFRAME PSTACK, 0, STACK
        ARGFRAME XSTACK, 41, STACK
        ARGFRAME IOVERLAY, 0, STATIC
        ARGFRAME DOVERLAY, 0, STATIC
        EXTERN ZDP_MatchDescReq
        FUNCTION ZDP_MatchDescReq,0202H
        ARGFRAME ISTACK, 0, STACK
        ARGFRAME PSTACK, 0, STACK
        ARGFRAME XSTACK, 40, STACK
        ARGFRAME IOVERLAY, 0, STATIC
        ARGFRAME DOVERLAY, 0, STATIC
        EXTERN afRegister
        FUNCTION afRegister,0202H
        ARGFRAME ISTACK, 0, STACK
        ARGFRAME PSTACK, 0, STACK
        ARGFRAME XSTACK, 9, STACK
        ARGFRAME IOVERLAY, 0, STATIC
        ARGFRAME DOVERLAY, 0, STATIC
        EXTERN osal_msg_deallocate
        FUNCTION osal_msg_deallocate,0202H
        ARGFRAME ISTACK, 0, STACK
        ARGFRAME PSTACK, 0, STACK
        ARGFRAME XSTACK, 24, STACK
        ARGFRAME IOVERLAY, 0, STATIC
        ARGFRAME DOVERLAY, 0, STATIC
        EXTERN osal_msg_receive
        FUNCTION osal_msg_receive,0202H
        ARGFRAME ISTACK, 0, STACK
        ARGFRAME PSTACK, 0, STACK
        ARGFRAME XSTACK, 24, STACK
        ARGFRAME IOVERLAY, 0, STATIC
        ARGFRAME DOVERLAY, 0, STATIC
        EXTERN osal_start_timerEx
        FUNCTION osal_start_timerEx,0202H
        ARGFRAME ISTACK, 0, STACK
        ARGFRAME PSTACK, 0, STACK
        ARGFRAME XSTACK, 24, STACK
        ARGFRAME IOVERLAY, 0, STATIC
        ARGFRAME DOVERLAY, 0, STATIC
        EXTERN osal_strlen
        FUNCTION osal_strlen,0202H
        ARGFRAME ISTACK, 0, STACK
        ARGFRAME PSTACK, 0, STACK
        ARGFRAME XSTACK, 32, STACK
        ARGFRAME IOVERLAY, 0, STATIC
        ARGFRAME DOVERLAY, 0, STATIC
        EXTERN printf
        FUNCTION printf,0202H
        ARGFRAME ISTACK, 0, STACK
        ARGFRAME PSTACK, 0, STACK
        ARGFRAME XSTACK, 26, STACK
        ARGFRAME IOVERLAY, 0, STATIC
        ARGFRAME DOVERLAY, 0, STATIC
        EXTERN user_state_change
        FUNCTION user_state_change,0202H
        ARGFRAME ISTACK, 0, STACK
        ARGFRAME PSTACK, 0, STACK
        ARGFRAME XSTACK, 24, STACK
        ARGFRAME IOVERLAY, 0, STATIC
        ARGFRAME DOVERLAY, 0, STATIC

// E:\GitHub\zjh\ZStack-CC2530-2.5.1a\Projects\zstack\Samples\ProjectApp\Source\ProjectApp.c
//    1 #include "OSAL.h"
//    2 #include "AF.h"
//    3 #include "ZDApp.h"
//    4 #include "ZDObject.h"
//    5 #include "ZDProfile.h"
//    6 
//    7 #include "ProjectApp.h"
//    8 #include "DebugTrace.h"
//    9 
//   10 #if !defined( WIN32 )
//   11   #include "OnBoard.h"
//   12 #endif
//   13 
//   14 /* HAL */
//   15 #include "hal_lcd.h"
//   16 #include "hal_led.h"
//   17 #include "hal_key.h"
//   18 #include "hal_uart.h"
//   19 
//   20 /* RTOS */
//   21 #if defined( IAR_ARMCM3_LM )
//   22 #include "RTOS_App.h"
//   23 #endif  
//   24 
//   25 #include "user_uart0.h"
//   26 #include "user_printf.h"
//   27 #include "user_api.h"
//   28 /*********************************************************************
//   29  * MACROS
//   30  */
//   31 
//   32 /*********************************************************************
//   33  * CONSTANTS
//   34  */
//   35 
//   36 /*********************************************************************
//   37  * TYPEDEFS
//   38  */
//   39 
//   40 /*********************************************************************
//   41  * GLOBAL VARIABLES
//   42  */
//   43 // This list should be filled with Application specific Cluster IDs.

        RSEG XDATA_ROM_C:CONST:REORDER:NOROOT(0)
        DATA16
//   44 const cId_t ProjectApp_ClusterList[PROJECTAPP_MAX_CLUSTERS] =
ProjectApp_ClusterList:
        DW 1
//   45 {
//   46   PROJECTAPP_CLUSTERID
//   47 };
//   48 

        RSEG XDATA_ROM_C:CONST:REORDER:NOROOT(0)
        DATA8
//   49 const SimpleDescriptionFormat_t ProjectApp_SimpleDesc =
ProjectApp_SimpleDesc:
        DB 10
        DATA16
        DW 3844
        DW 1
        DATA8
        DB 0
        DB 1
        DATA16
        DW ProjectApp_ClusterList
        DATA8
        DB 1
        DATA16
        DW ProjectApp_ClusterList
//   50 {
//   51   PROJECTAPP_ENDPOINT,              //  int Endpoint;
//   52   PROJECTAPP_PROFID,                //  uint16 AppProfId[2];
//   53   PROJECTAPP_DEVICEID,              //  uint16 AppDeviceId[2];
//   54   PROJECTAPP_DEVICE_VERSION,        //  int   AppDevVer:4;
//   55   PROJECTAPP_FLAGS,                 //  int   AppFlags:4;
//   56   PROJECTAPP_MAX_CLUSTERS,          //  byte  AppNumInClusters;
//   57   (cId_t *)ProjectApp_ClusterList,  //  byte *pAppInClusterList;
//   58   PROJECTAPP_MAX_CLUSTERS,          //  byte  AppNumInClusters;
//   59   (cId_t *)ProjectApp_ClusterList   //  byte *pAppInClusterList;
//   60 };
//   61 
//   62 // This is the Endpoint/Interface description.  It is defined here, but
//   63 // filled-in in ProjectApp_Init().  Another way to go would be to fill
//   64 // in the structure here and make it a "const" (in code space).  The
//   65 // way it's defined in this sample app it is define in RAM.

        RSEG XDATA_Z:XDATA:NOROOT(0)
        DATA8
//   66 endPointDesc_t ProjectApp_epDesc;
ProjectApp_epDesc:
        DS 6
        REQUIRE __INIT_XDATA_Z
//   67 
//   68 /*********************************************************************
//   69  * EXTERNAL VARIABLES
//   70  */
//   71 
//   72 /*********************************************************************
//   73  * EXTERNAL FUNCTIONS
//   74  */
//   75 
//   76 /*********************************************************************
//   77  * LOCAL VARIABLES
//   78  */

        RSEG XDATA_Z:XDATA:NOROOT(0)
        DATA8
//   79 byte ProjectApp_TaskID;   // Task ID for internal task/event processing
ProjectApp_TaskID:
        DS 1
        REQUIRE __INIT_XDATA_Z
//   80                           // This variable will be received when
//   81                           // ProjectApp_Init() is called.

        RSEG XDATA_Z:XDATA:NOROOT(0)
        DATA8
//   82 devStates_t ProjectApp_NwkState;
ProjectApp_NwkState:
        DS 1
        REQUIRE __INIT_XDATA_Z
//   83 
//   84 

        RSEG XDATA_Z:XDATA:NOROOT(0)
        DATA8
//   85 byte ProjectApp_TransID;  // This is the unique message ID (counter)
ProjectApp_TransID:
        DS 1
        REQUIRE __INIT_XDATA_Z
//   86 

        RSEG XDATA_Z:XDATA:NOROOT(0)
        DATA8
//   87 afAddrType_t ProjectApp_DstAddr;
ProjectApp_DstAddr:
        DS 12
        REQUIRE __INIT_XDATA_Z
//   88 
//   89 /*********************************************************************
//   90  * LOCAL FUNCTIONS
//   91  */
//   92 
//   93 static void ProjectApp_HandleKeys( byte shift, byte keys );
//   94 static void ProjectApp_SendTheMessage( void );
//   95 static void ProjectApp_ProcessZDOMsgs( zdoIncomingMsg_t *inMsg );
//   96 static void ProjectApp_SendBindcast( void );
//   97 static void ProjectApp_MessageMSGCB( afIncomingMSGPacket_t *pkt );
//   98 #if defined( IAR_ARMCM3_LM )
//   99 static void ProjectApp_ProcessRtosMessage( void );
//  100 #endif
//  101 
//  102 /*********************************************************************
//  103  * NETWORK LAYER CALLBACKS
//  104  */
//  105 
//  106 /*********************************************************************
//  107  * PUBLIC FUNCTIONS
//  108  */
//  109 
//  110 /*********************************************************************
//  111  * @fn      ProjectApp_Init
//  112  *
//  113  * @brief   Initialization function for the Project App Task.
//  114  *          This is called during initialization and should contain
//  115  *          any application specific initialization (ie. hardware
//  116  *          initialization/setup, table initialization, power up
//  117  *          notificaiton ... ).
//  118  *
//  119  * @param   task_id - the ID assigned by OSAL.  This ID should be
//  120  *                    used to send messages and set timers.
//  121  *
//  122  * @return  none
//  123  */

        RSEG BANKED_CODE:HUGECODE:NOROOT(0)
//  124 void ProjectApp_Init( uint8 task_id )
ProjectApp_Init:
          CFI Block cfiBlock0 Using cfiCommon0
          CFI Function ProjectApp_Init
        CODE
//  125 {
        FUNCALL ProjectApp_Init, afRegister
        LOCFRAME ISTACK, 0, STACK
        LOCFRAME PSTACK, 0, STACK
        LOCFRAME XSTACK, 9, STACK
        LOCFRAME IOVERLAY, 0, STATIC
        LOCFRAME DOVERLAY, 0, STATIC
        ARGFRAME ISTACK, 0, STACK
        ARGFRAME PSTACK, 0, STACK
        ARGFRAME XSTACK, 9, STACK
        ARGFRAME IOVERLAY, 0, STATIC
        ARGFRAME DOVERLAY, 0, STATIC
        FUNCALL ProjectApp_Init, RegisterForKeys
        LOCFRAME ISTACK, 0, STACK
        LOCFRAME PSTACK, 0, STACK
        LOCFRAME XSTACK, 9, STACK
        LOCFRAME IOVERLAY, 0, STATIC
        LOCFRAME DOVERLAY, 0, STATIC
        ARGFRAME ISTACK, 0, STACK
        ARGFRAME PSTACK, 0, STACK
        ARGFRAME XSTACK, 9, STACK
        ARGFRAME IOVERLAY, 0, STATIC
        ARGFRAME DOVERLAY, 0, STATIC
        FUNCALL ProjectApp_Init, ZDO_RegisterForZDOMsg
        LOCFRAME ISTACK, 0, STACK
        LOCFRAME PSTACK, 0, STACK
        LOCFRAME XSTACK, 9, STACK
        LOCFRAME IOVERLAY, 0, STATIC
        LOCFRAME DOVERLAY, 0, STATIC
        ARGFRAME ISTACK, 0, STACK
        ARGFRAME PSTACK, 0, STACK
        ARGFRAME XSTACK, 9, STACK
        ARGFRAME IOVERLAY, 0, STATIC
        ARGFRAME DOVERLAY, 0, STATIC
        FUNCALL ProjectApp_Init, ZDO_RegisterForZDOMsg
        LOCFRAME ISTACK, 0, STACK
        LOCFRAME PSTACK, 0, STACK
        LOCFRAME XSTACK, 9, STACK
        LOCFRAME IOVERLAY, 0, STATIC
        LOCFRAME DOVERLAY, 0, STATIC
        ARGFRAME ISTACK, 0, STACK
        ARGFRAME PSTACK, 0, STACK
        ARGFRAME XSTACK, 9, STACK
        ARGFRAME IOVERLAY, 0, STATIC
        ARGFRAME DOVERLAY, 0, STATIC
        FUNCALL ProjectApp_Init, USER_Uart0_Init
        LOCFRAME ISTACK, 0, STACK
        LOCFRAME PSTACK, 0, STACK
        LOCFRAME XSTACK, 9, STACK
        LOCFRAME IOVERLAY, 0, STATIC
        LOCFRAME DOVERLAY, 0, STATIC
        ARGFRAME ISTACK, 0, STACK
        ARGFRAME PSTACK, 0, STACK
        ARGFRAME XSTACK, 9, STACK
        ARGFRAME IOVERLAY, 0, STATIC
        ARGFRAME DOVERLAY, 0, STATIC
        FUNCALL ProjectApp_Init, ZDO_RegisterForZDOMsg
        LOCFRAME ISTACK, 0, STACK
        LOCFRAME PSTACK, 0, STACK
        LOCFRAME XSTACK, 9, STACK
        LOCFRAME IOVERLAY, 0, STATIC
        LOCFRAME DOVERLAY, 0, STATIC
        ARGFRAME ISTACK, 0, STACK
        ARGFRAME PSTACK, 0, STACK
        ARGFRAME XSTACK, 9, STACK
        ARGFRAME IOVERLAY, 0, STATIC
        ARGFRAME DOVERLAY, 0, STATIC
        MOV       A,#-0x9
        LCALL     ?BANKED_ENTER_XDATA
          CFI DPH0 load(1, XDATA, add(CFA_XSP16, literal(-1)))
          CFI DPL0 load(1, XDATA, add(CFA_XSP16, literal(-2)))
          CFI ?BRET_EXT load(1, XDATA, add(CFA_XSP16, literal(-3)))
          CFI ?RET_HIGH load(1, XDATA, add(CFA_XSP16, literal(-4)))
          CFI ?RET_LOW load(1, XDATA, add(CFA_XSP16, literal(-5)))
          CFI R7 load(1, XDATA, add(CFA_XSP16, literal(-6)))
          CFI V0 load(1, XDATA, add(CFA_XSP16, literal(-7)))
          CFI VB load(1, XDATA, add(CFA_XSP16, literal(-8)))
          CFI R6 load(1, XDATA, add(CFA_XSP16, literal(-9)))
          CFI CFA_SP SP+0
          CFI CFA_XSP16 add(XSP16, 9)
        ; Saved register size: 9
        ; Auto size: 0
        MOV       A,R1
//  126   ProjectApp_TaskID = task_id;
        MOV       DPTR,#ProjectApp_TaskID
        MOVX      @DPTR,A
//  127   ProjectApp_NwkState = DEV_INIT;
        MOV       DPTR,#ProjectApp_NwkState
        MOV       A,#0x1
        MOVX      @DPTR,A
//  128   ProjectApp_TransID = 0;
        MOV       DPTR,#ProjectApp_TransID
        CLR       A
        MOVX      @DPTR,A
//  129 
//  130   // Device hardware initialization can be added here or in main() (Zmain.c).
//  131   // If the hardware is application specific - add it here.
//  132   // If the hardware is other parts of the device add it in main().
//  133 
//  134   ProjectApp_DstAddr.addrMode = (afAddrMode_t)AddrNotPresent;
        LCALL     ?Subroutine0 & 0xFFFF
//  135   ProjectApp_DstAddr.endPoint = 0;
//  136   ProjectApp_DstAddr.addr.shortAddr = 0;
//  137 
//  138   // Fill out the endpoint description.
//  139   ProjectApp_epDesc.endPoint = PROJECTAPP_ENDPOINT;
??CrossCallReturnLabel_0:
        MOV       DPTR,#ProjectApp_epDesc
        MOV       A,#0xa
        MOVX      @DPTR,A
//  140   ProjectApp_epDesc.task_id = &ProjectApp_TaskID;
        INC       DPTR
        MOV       A,#ProjectApp_TaskID & 0xff
        MOVX      @DPTR,A
        INC       DPTR
        MOV       A,#(ProjectApp_TaskID >> 8) & 0xff
        MOVX      @DPTR,A
//  141   ProjectApp_epDesc.simpleDesc
//  142             = (SimpleDescriptionFormat_t *)&ProjectApp_SimpleDesc;
        INC       DPTR
        MOV       A,#ProjectApp_SimpleDesc & 0xff
        MOVX      @DPTR,A
        INC       DPTR
        MOV       A,#(ProjectApp_SimpleDesc >> 8) & 0xff
        MOVX      @DPTR,A
//  143   ProjectApp_epDesc.latencyReq = noLatencyReqs;
        INC       DPTR
        CLR       A
        MOVX      @DPTR,A
//  144 
//  145   // Register the endpoint description with the AF
//  146   afRegister( &ProjectApp_epDesc );
        ; Setup parameters for call to function afRegister
        MOV       R2,#ProjectApp_epDesc & 0xff
        MOV       R3,#(ProjectApp_epDesc >> 8) & 0xff
        LCALL     `??afRegister::?relay`; Banked call to: afRegister
//  147 
//  148   // Register for all key events - This app will handle all key events
//  149   RegisterForKeys( ProjectApp_TaskID );
        ; Setup parameters for call to function RegisterForKeys
        MOV       DPTR,#ProjectApp_TaskID
        MOVX      A,@DPTR
        MOV       R1,A
        LCALL     `??RegisterForKeys::?relay`; Banked call to: RegisterForKeys
//  150 
//  151   // Update the display
//  152 #if defined ( LCD_SUPPORTED )
//  153   HalLcdWriteString( "ProjectApp", HAL_LCD_LINE_1 );
//  154 #endif
//  155 
//  156   ZDO_RegisterForZDOMsg( ProjectApp_TaskID, End_Device_Bind_rsp );
        ; Setup parameters for call to function ZDO_RegisterForZDOMsg
        LCALL     ?Subroutine1 & 0xFFFF
//  157   ZDO_RegisterForZDOMsg( ProjectApp_TaskID, Match_Desc_rsp );
??CrossCallReturnLabel_2:
        ; Setup parameters for call to function ZDO_RegisterForZDOMsg
        MOV       R2,#0x6
        LCALL     ??Subroutine2_0 & 0xFFFF
//  158 
//  159 #if defined( IAR_ARMCM3_LM )
//  160   // Register this task with RTOS task initiator
//  161   RTOS_RegisterApp( task_id, PROJECTAPP_RTOS_MSG_EVT );
//  162 #endif
//  163   
//  164    USER_Uart0_Init(HAL_UART_BR_115200);
??CrossCallReturnLabel_4:
        ; Setup parameters for call to function USER_Uart0_Init
        MOV       R1,#0x4
        LCALL     `??USER_Uart0_Init::?relay`; Banked call to: USER_Uart0_Init
//  165    
//  166 ZDO_RegisterForZDOMsg( ProjectApp_TaskID, End_Device_Bind_rsp );
        ; Setup parameters for call to function ZDO_RegisterForZDOMsg
        LCALL     ?Subroutine1 & 0xFFFF
//  167 }
??CrossCallReturnLabel_3:
        MOV       R7,#0x1
        LJMP      ?BANKED_LEAVE_XDATA
          CFI EndBlock cfiBlock0

        RSEG BANKED_CODE:HUGECODE:NOROOT(0)
?Subroutine1:
          CFI Block cfiCond1 Using cfiCommon0
          CFI Function ProjectApp_Init
          CFI Conditional ??CrossCallReturnLabel_2
          CFI R6 load(1, XDATA, add(CFA_XSP16, literal(-9)))
          CFI VB load(1, XDATA, add(CFA_XSP16, literal(-8)))
          CFI V0 load(1, XDATA, add(CFA_XSP16, literal(-7)))
          CFI R7 load(1, XDATA, add(CFA_XSP16, literal(-6)))
          CFI ?RET_LOW load(1, XDATA, add(CFA_XSP16, literal(-5)))
          CFI ?RET_HIGH load(1, XDATA, add(CFA_XSP16, literal(-4)))
          CFI ?BRET_EXT load(1, XDATA, add(CFA_XSP16, literal(-3)))
          CFI DPL0 load(1, XDATA, add(CFA_XSP16, literal(-2)))
          CFI DPH0 load(1, XDATA, add(CFA_XSP16, literal(-1)))
          CFI CFA_SP SP+-2
          CFI CFA_XSP16 add(XSP16, 9)
          CFI Block cfiCond2 Using cfiCommon0
          CFI (cfiCond2) Function ProjectApp_Init
          CFI (cfiCond2) Conditional ??CrossCallReturnLabel_3
          CFI (cfiCond2) R6 load(1, XDATA, add(CFA_XSP16, literal(-9)))
          CFI (cfiCond2) VB load(1, XDATA, add(CFA_XSP16, literal(-8)))
          CFI (cfiCond2) V0 load(1, XDATA, add(CFA_XSP16, literal(-7)))
          CFI (cfiCond2) R7 load(1, XDATA, add(CFA_XSP16, literal(-6)))
          CFI (cfiCond2) ?RET_LOW load(1, XDATA, add(CFA_XSP16, literal(-5)))
          CFI (cfiCond2) ?RET_HIGH load(1, XDATA, add(CFA_XSP16, literal(-4)))
          CFI (cfiCond2) ?BRET_EXT load(1, XDATA, add(CFA_XSP16, literal(-3)))
          CFI (cfiCond2) DPL0 load(1, XDATA, add(CFA_XSP16, literal(-2)))
          CFI (cfiCond2) DPH0 load(1, XDATA, add(CFA_XSP16, literal(-1)))
          CFI (cfiCond2) CFA_SP SP+-2
          CFI (cfiCond2) CFA_XSP16 add(XSP16, 9)
          CFI Block cfiPicker3 Using cfiCommon1
          CFI (cfiPicker3) NoFunction
          CFI (cfiPicker3) Picker
        MOV       R2,#0x20
          CFI EndBlock cfiCond1
          CFI EndBlock cfiCond2
          CFI EndBlock cfiPicker3
        REQUIRE ??Subroutine2_0
        ; // Fall through to label ??Subroutine2_0

        RSEG BANKED_CODE:HUGECODE:NOROOT(0)
??Subroutine2_0:
          CFI Block cfiCond4 Using cfiCommon0
          CFI Function ProjectApp_Init
          CFI Conditional ??CrossCallReturnLabel_4
          CFI R6 load(1, XDATA, add(CFA_XSP16, literal(-9)))
          CFI VB load(1, XDATA, add(CFA_XSP16, literal(-8)))
          CFI V0 load(1, XDATA, add(CFA_XSP16, literal(-7)))
          CFI R7 load(1, XDATA, add(CFA_XSP16, literal(-6)))
          CFI ?RET_LOW load(1, XDATA, add(CFA_XSP16, literal(-5)))
          CFI ?RET_HIGH load(1, XDATA, add(CFA_XSP16, literal(-4)))
          CFI ?BRET_EXT load(1, XDATA, add(CFA_XSP16, literal(-3)))
          CFI DPL0 load(1, XDATA, add(CFA_XSP16, literal(-2)))
          CFI DPH0 load(1, XDATA, add(CFA_XSP16, literal(-1)))
          CFI CFA_SP SP+-2
          CFI CFA_XSP16 add(XSP16, 9)
          CFI Block cfiCond5 Using cfiCommon0
          CFI (cfiCond5) Function ProjectApp_Init
          CFI (cfiCond5) Conditional ??CrossCallReturnLabel_2
          CFI (cfiCond5) R6 load(1, XDATA, add(CFA_XSP16, literal(-9)))
          CFI (cfiCond5) VB load(1, XDATA, add(CFA_XSP16, literal(-8)))
          CFI (cfiCond5) V0 load(1, XDATA, add(CFA_XSP16, literal(-7)))
          CFI (cfiCond5) R7 load(1, XDATA, add(CFA_XSP16, literal(-6)))
          CFI (cfiCond5) ?RET_LOW load(1, XDATA, add(CFA_XSP16, literal(-5)))
          CFI (cfiCond5) ?RET_HIGH load(1, XDATA, add(CFA_XSP16, literal(-4)))
          CFI (cfiCond5) ?BRET_EXT load(1, XDATA, add(CFA_XSP16, literal(-3)))
          CFI (cfiCond5) DPL0 load(1, XDATA, add(CFA_XSP16, literal(-2)))
          CFI (cfiCond5) DPH0 load(1, XDATA, add(CFA_XSP16, literal(-1)))
          CFI (cfiCond5) CFA_SP SP+-2
          CFI (cfiCond5) CFA_XSP16 add(XSP16, 9)
          CFI Block cfiCond6 Using cfiCommon0
          CFI (cfiCond6) Function ProjectApp_Init
          CFI (cfiCond6) Conditional ??CrossCallReturnLabel_3
          CFI (cfiCond6) R6 load(1, XDATA, add(CFA_XSP16, literal(-9)))
          CFI (cfiCond6) VB load(1, XDATA, add(CFA_XSP16, literal(-8)))
          CFI (cfiCond6) V0 load(1, XDATA, add(CFA_XSP16, literal(-7)))
          CFI (cfiCond6) R7 load(1, XDATA, add(CFA_XSP16, literal(-6)))
          CFI (cfiCond6) ?RET_LOW load(1, XDATA, add(CFA_XSP16, literal(-5)))
          CFI (cfiCond6) ?RET_HIGH load(1, XDATA, add(CFA_XSP16, literal(-4)))
          CFI (cfiCond6) ?BRET_EXT load(1, XDATA, add(CFA_XSP16, literal(-3)))
          CFI (cfiCond6) DPL0 load(1, XDATA, add(CFA_XSP16, literal(-2)))
          CFI (cfiCond6) DPH0 load(1, XDATA, add(CFA_XSP16, literal(-1)))
          CFI (cfiCond6) CFA_SP SP+-2
          CFI (cfiCond6) CFA_XSP16 add(XSP16, 9)
          CFI Block cfiPicker7 Using cfiCommon1
          CFI (cfiPicker7) NoFunction
          CFI (cfiPicker7) Picker
        MOV       R3,#-0x80
        MOV       DPTR,#ProjectApp_TaskID
        MOVX      A,@DPTR
        MOV       R1,A
        LCALL     `??ZDO_RegisterForZDOMsg::?relay`; Banked call to: ZDO_RegisterForZDOMsg
        RET
          CFI EndBlock cfiCond4
          CFI EndBlock cfiCond5
          CFI EndBlock cfiCond6
          CFI EndBlock cfiPicker7
//  168 
//  169 /*********************************************************************
//  170  * @fn      ProjectApp_ProcessEvent
//  171  *
//  172  * @brief   Project Application Task event processor.  This function
//  173  *          is called to process all events for the task.  Events
//  174  *          include timers, messages and any other user defined events.
//  175  *
//  176  * @param   task_id  - The OSAL assigned task ID.
//  177  * @param   events - events to process.  This is a bit map and can
//  178  *                   contain more than one event.
//  179  *
//  180  * @return  none
//  181  */

        RSEG BANKED_CODE:HUGECODE:NOROOT(0)
//  182 uint16 ProjectApp_ProcessEvent( uint8 task_id, uint16 events )
ProjectApp_ProcessEvent:
          CFI Block cfiBlock8 Using cfiCommon0
          CFI Function ProjectApp_ProcessEvent
        CODE
//  183 {
        FUNCALL ProjectApp_ProcessEvent, osal_msg_receive
        LOCFRAME ISTACK, 0, STACK
        LOCFRAME PSTACK, 0, STACK
        LOCFRAME XSTACK, 24, STACK
        LOCFRAME IOVERLAY, 0, STATIC
        LOCFRAME DOVERLAY, 0, STATIC
        ARGFRAME ISTACK, 0, STACK
        ARGFRAME PSTACK, 0, STACK
        ARGFRAME XSTACK, 24, STACK
        ARGFRAME IOVERLAY, 0, STATIC
        ARGFRAME DOVERLAY, 0, STATIC
        FUNCALL ProjectApp_ProcessEvent, user_state_change
        LOCFRAME ISTACK, 0, STACK
        LOCFRAME PSTACK, 0, STACK
        LOCFRAME XSTACK, 24, STACK
        LOCFRAME IOVERLAY, 0, STATIC
        LOCFRAME DOVERLAY, 0, STATIC
        ARGFRAME ISTACK, 0, STACK
        ARGFRAME PSTACK, 0, STACK
        ARGFRAME XSTACK, 24, STACK
        ARGFRAME IOVERLAY, 0, STATIC
        ARGFRAME DOVERLAY, 0, STATIC
        FUNCALL ProjectApp_ProcessEvent, osal_msg_deallocate
        LOCFRAME ISTACK, 0, STACK
        LOCFRAME PSTACK, 0, STACK
        LOCFRAME XSTACK, 24, STACK
        LOCFRAME IOVERLAY, 0, STATIC
        LOCFRAME DOVERLAY, 0, STATIC
        ARGFRAME ISTACK, 0, STACK
        ARGFRAME PSTACK, 0, STACK
        ARGFRAME XSTACK, 24, STACK
        ARGFRAME IOVERLAY, 0, STATIC
        ARGFRAME DOVERLAY, 0, STATIC
        FUNCALL ProjectApp_ProcessEvent, osal_msg_receive
        LOCFRAME ISTACK, 0, STACK
        LOCFRAME PSTACK, 0, STACK
        LOCFRAME XSTACK, 24, STACK
        LOCFRAME IOVERLAY, 0, STATIC
        LOCFRAME DOVERLAY, 0, STATIC
        ARGFRAME ISTACK, 0, STACK
        ARGFRAME PSTACK, 0, STACK
        ARGFRAME XSTACK, 24, STACK
        ARGFRAME IOVERLAY, 0, STATIC
        ARGFRAME DOVERLAY, 0, STATIC
        FUNCALL ProjectApp_ProcessEvent, printf
        LOCFRAME ISTACK, 0, STACK
        LOCFRAME PSTACK, 0, STACK
        LOCFRAME XSTACK, 24, STACK
        LOCFRAME IOVERLAY, 0, STATIC
        LOCFRAME DOVERLAY, 0, STATIC
        ARGFRAME ISTACK, 0, STACK
        ARGFRAME PSTACK, 0, STACK
        ARGFRAME XSTACK, 24, STACK
        ARGFRAME IOVERLAY, 0, STATIC
        ARGFRAME DOVERLAY, 0, STATIC
        FUNCALL ProjectApp_ProcessEvent, printf
        LOCFRAME ISTACK, 0, STACK
        LOCFRAME PSTACK, 0, STACK
        LOCFRAME XSTACK, 24, STACK
        LOCFRAME IOVERLAY, 0, STATIC
        LOCFRAME DOVERLAY, 0, STATIC
        ARGFRAME ISTACK, 0, STACK
        ARGFRAME PSTACK, 0, STACK
        ARGFRAME XSTACK, 24, STACK
        ARGFRAME IOVERLAY, 0, STATIC
        ARGFRAME DOVERLAY, 0, STATIC
        FUNCALL ProjectApp_ProcessEvent, ProjectApp_HandleKeys
        LOCFRAME ISTACK, 0, STACK
        LOCFRAME PSTACK, 0, STACK
        LOCFRAME XSTACK, 24, STACK
        LOCFRAME IOVERLAY, 0, STATIC
        LOCFRAME DOVERLAY, 0, STATIC
        ARGFRAME ISTACK, 0, STACK
        ARGFRAME PSTACK, 0, STACK
        ARGFRAME XSTACK, 24, STACK
        ARGFRAME IOVERLAY, 0, STATIC
        ARGFRAME DOVERLAY, 0, STATIC
        FUNCALL ProjectApp_ProcessEvent, printf
        LOCFRAME ISTACK, 0, STACK
        LOCFRAME PSTACK, 0, STACK
        LOCFRAME XSTACK, 26, STACK
        LOCFRAME IOVERLAY, 0, STATIC
        LOCFRAME DOVERLAY, 0, STATIC
        ARGFRAME ISTACK, 0, STACK
        ARGFRAME PSTACK, 0, STACK
        ARGFRAME XSTACK, 26, STACK
        ARGFRAME IOVERLAY, 0, STATIC
        ARGFRAME DOVERLAY, 0, STATIC
        FUNCALL ProjectApp_ProcessEvent, osal_strlen
        LOCFRAME ISTACK, 0, STACK
        LOCFRAME PSTACK, 0, STACK
        LOCFRAME XSTACK, 24, STACK
        LOCFRAME IOVERLAY, 0, STATIC
        LOCFRAME DOVERLAY, 0, STATIC
        ARGFRAME ISTACK, 0, STACK
        ARGFRAME PSTACK, 0, STACK
        ARGFRAME XSTACK, 24, STACK
        ARGFRAME IOVERLAY, 0, STATIC
        ARGFRAME DOVERLAY, 0, STATIC
        FUNCALL ProjectApp_ProcessEvent, AF_DataRequest
        LOCFRAME ISTACK, 0, STACK
        LOCFRAME PSTACK, 0, STACK
        LOCFRAME XSTACK, 33, STACK
        LOCFRAME IOVERLAY, 0, STATIC
        LOCFRAME DOVERLAY, 0, STATIC
        ARGFRAME ISTACK, 0, STACK
        ARGFRAME PSTACK, 0, STACK
        ARGFRAME XSTACK, 33, STACK
        ARGFRAME IOVERLAY, 0, STATIC
        ARGFRAME DOVERLAY, 0, STATIC
        FUNCALL ProjectApp_ProcessEvent, osal_start_timerEx
        LOCFRAME ISTACK, 0, STACK
        LOCFRAME PSTACK, 0, STACK
        LOCFRAME XSTACK, 24, STACK
        LOCFRAME IOVERLAY, 0, STATIC
        LOCFRAME DOVERLAY, 0, STATIC
        ARGFRAME ISTACK, 0, STACK
        ARGFRAME PSTACK, 0, STACK
        ARGFRAME XSTACK, 24, STACK
        ARGFRAME IOVERLAY, 0, STATIC
        ARGFRAME DOVERLAY, 0, STATIC
        REQUIRE ?V0
        REQUIRE ?V1
        REQUIRE ?V2
        REQUIRE ?V3
        MOV       A,#-0xc
        LCALL     ?BANKED_ENTER_XDATA
          CFI DPH0 load(1, XDATA, add(CFA_XSP16, literal(-1)))
          CFI DPL0 load(1, XDATA, add(CFA_XSP16, literal(-2)))
          CFI ?BRET_EXT load(1, XDATA, add(CFA_XSP16, literal(-3)))
          CFI ?RET_HIGH load(1, XDATA, add(CFA_XSP16, literal(-4)))
          CFI ?RET_LOW load(1, XDATA, add(CFA_XSP16, literal(-5)))
          CFI R7 load(1, XDATA, add(CFA_XSP16, literal(-6)))
          CFI V3 load(1, XDATA, add(CFA_XSP16, literal(-7)))
          CFI V2 load(1, XDATA, add(CFA_XSP16, literal(-8)))
          CFI V1 load(1, XDATA, add(CFA_XSP16, literal(-9)))
          CFI V0 load(1, XDATA, add(CFA_XSP16, literal(-10)))
          CFI VB load(1, XDATA, add(CFA_XSP16, literal(-11)))
          CFI R6 load(1, XDATA, add(CFA_XSP16, literal(-12)))
          CFI CFA_SP SP+0
          CFI CFA_XSP16 add(XSP16, 12)
        ; Saved register size: 12
        ; Auto size: 12
        MOV       A,#-0xc
        LCALL     ?ALLOC_XSTACK8
          CFI CFA_XSP16 add(XSP16, 24)
        MOV       ?V0,R2
        MOV       ?V1,R3
//  184   afIncomingMSGPacket_t *MSGpkt;
//  185   afDataConfirm_t *afDataConfirm;
//  186 
//  187   // Data Confirmation message fields
//  188   byte sentEP;
//  189   ZStatus_t sentStatus;
//  190   byte sentTransID;       // This should match the value sent
//  191   (void)task_id;  // Intentionally unreferenced parameter
//  192 
//  193   if ( events & SYS_EVENT_MSG )
        MOV       A,R3
        ANL       A,#0x80
        JNZ       $+5
        LJMP      ??ProjectApp_ProcessEvent_0 & 0xFFFF
//  194   {
//  195     MSGpkt = (afIncomingMSGPacket_t *)osal_msg_receive( ProjectApp_TaskID );
        ; Setup parameters for call to function osal_msg_receive
        SJMP      ??ProjectApp_ProcessEvent_1
//  196     while ( MSGpkt )
//  197     {
//  198       switch ( MSGpkt->hdr.event )
//  199       {
//  200         case ZDO_CB_MSG:
//  201           ProjectApp_ProcessZDOMsgs( (zdoIncomingMsg_t *)MSGpkt );
//  202           break;
//  203 
//  204         case KEY_CHANGE:
//  205           ProjectApp_HandleKeys( ((keyChange_t *)MSGpkt)->state, ((keyChange_t *)MSGpkt)->keys );
//  206           break;
//  207 
//  208         case AF_DATA_CONFIRM_CMD:
//  209           // This message is received as a confirmation of a data packet sent.
//  210           // The status is of ZStatus_t type [defined in ZComDef.h]
//  211           // The message fields are defined in AF.h
//  212           afDataConfirm = (afDataConfirm_t *)MSGpkt;
//  213           sentEP = afDataConfirm->endpoint;
//  214           sentStatus = afDataConfirm->hdr.status;
//  215           sentTransID = afDataConfirm->transID;
//  216           (void)sentEP;
//  217           (void)sentTransID;
//  218 
//  219           // Action taken when confirmation is received.
//  220           if ( sentStatus != ZSuccess )
//  221           {
//  222             // The data wasn't delivered -- Do something
//  223           }
//  224           break;
//  225 
//  226         case AF_INCOMING_MSG_CMD:
//  227            ProjectApp_MessageMSGCB( MSGpkt );
//  228           break;
//  229           
//  230         case ZDO_STATE_CHANGE:
//  231            user_state_change((devStates_t)(MSGpkt->hdr.status));
??ProjectApp_ProcessEvent_2:
        ; Setup parameters for call to function user_state_change
        INC       DPTR
        MOVX      A,@DPTR
        MOV       R1,A
        LCALL     `??user_state_change::?relay`; Banked call to: user_state_change
//  232           break;
//  233 
//  234         default:
//  235           break;
//  236       }
//  237 
//  238       // Release the memory
//  239       osal_msg_deallocate( (uint8 *)MSGpkt );
??ProjectApp_ProcessEvent_3:
        ; Setup parameters for call to function osal_msg_deallocate
        MOV       A,R6
        MOV       R2,A
        MOV       A,R7
        MOV       R3,A
        LCALL     `??osal_msg_deallocate::?relay`; Banked call to: osal_msg_deallocate
//  240 
//  241       // Next
//  242       MSGpkt = (afIncomingMSGPacket_t *)osal_msg_receive( ProjectApp_TaskID );
        ; Setup parameters for call to function osal_msg_receive
??ProjectApp_ProcessEvent_1:
        MOV       DPTR,#ProjectApp_TaskID
        MOVX      A,@DPTR
        MOV       R1,A
        LCALL     `??osal_msg_receive::?relay`; Banked call to: osal_msg_receive
        MOV       ?V2,R2
        MOV       ?V3,R3
        MOV       R6,?V2
        MOV       R7,?V3
        MOV       A,R6
        ORL       A,R7
        JNZ       $+5
        LJMP      ??ProjectApp_ProcessEvent_4 & 0xFFFF
        MOV       DPL,R6
        MOV       DPH,R7
        MOVX      A,@DPTR
        ADD       A,#-0x1a
        JZ        ??ProjectApp_ProcessEvent_5
        ADD       A,#0x5a
        JZ        ??ProjectApp_ProcessEvent_6
        ADD       A,#-0x11
        JZ        ??ProjectApp_ProcessEvent_2
        ADD       A,#-0x2
        JNZ       ??ProjectApp_ProcessEvent_3
        MOV       A,R6
        ADD       A,#0xc
        MOV       DPL,A
        CLR       A
        ADDC      A,R7
        MOV       DPH,A
        MOVX      A,@DPTR
        XRL       A,#0x20
        JNZ       ??ProjectApp_ProcessEvent_7
        INC       DPTR
        MOVX      A,@DPTR
        XRL       A,#0x80
??ProjectApp_ProcessEvent_7:
        JNZ       ??ProjectApp_ProcessEvent_3
        MOV       A,R6
        ADD       A,#0x13
        MOV       DPL,A
        CLR       A
        ADDC      A,R7
        MOV       DPH,A
        MOVX      A,@DPTR
        MOV       R0,A
        INC       DPTR
        MOVX      A,@DPTR
        MOV       DPH,A
        MOV       DPL,R0
        MOVX      A,@DPTR
        JNZ       ??ProjectApp_ProcessEvent_8
        ; Setup parameters for call to function printf
        MOV       R2,#`?<Constant "Bind success!\\r\\n">` & 0xff
        MOV       R3,#(`?<Constant "Bind success!\\r\\n">` >> 8) & 0xff
??ProjectApp_ProcessEvent_9:
        LCALL     `??printf::?relay`; Banked call to: printf
        SJMP      ??ProjectApp_ProcessEvent_3
??ProjectApp_ProcessEvent_8:
        ; Setup parameters for call to function printf
        MOV       R2,#`?<Constant "Bind failure!\\r\\n">` & 0xff
        MOV       R3,#(`?<Constant "Bind failure!\\r\\n">` >> 8) & 0xff
        SJMP      ??ProjectApp_ProcessEvent_9
??ProjectApp_ProcessEvent_6:
        ; Setup parameters for call to function ProjectApp_HandleKeys
        INC       DPTR
        INC       DPTR
        INC       DPTR
        MOVX      A,@DPTR
        MOV       R2,A
        MOV       DPL,R6
        MOV       DPH,R7
        INC       DPTR
        INC       DPTR
        MOVX      A,@DPTR
        MOV       R1,A
        LCALL     `??ProjectApp_HandleKeys::?relay`; Banked call to: ProjectApp_HandleKeys
        SJMP      ??ProjectApp_ProcessEvent_3
??ProjectApp_ProcessEvent_5:
        INC       DPTR
        INC       DPTR
        INC       DPTR
        INC       DPTR
        MOVX      A,@DPTR
        XRL       A,#0x1
        JNZ       ??ProjectApp_ProcessEvent_10
        INC       DPTR
        MOVX      A,@DPTR
??ProjectApp_ProcessEvent_10:
        JZ        $+5
        LJMP      ??ProjectApp_ProcessEvent_3 & 0xFFFF
        ; Setup parameters for call to function printf
        MOV       A,R6
        ADD       A,#0x22
        MOV       DPL,A
        CLR       A
        ADDC      A,R7
        MOV       DPH,A
        LCALL     ?PUSH_XSTACK8_X_TWO
          CFI CFA_XSP16 add(XSP16, 26)
        MOV       R2,#`?<Constant "%s\\r\\n">` & 0xff
        MOV       R3,#(`?<Constant "%s\\r\\n">` >> 8) & 0xff
        LCALL     `??printf::?relay`; Banked call to: printf
        MOV       A,#0x2
        LCALL     ?DEALLOC_XSTACK8
          CFI CFA_XSP16 add(XSP16, 24)
        LJMP      ??ProjectApp_ProcessEvent_3 & 0xFFFF
//  243     }
//  244 
//  245     // return unprocessed events
//  246     return (events ^ SYS_EVENT_MSG);
??ProjectApp_ProcessEvent_4:
        MOV       R2,?V0
        MOV       A,?V1
        XRL       A,#0x80
        MOV       R3,A
        LJMP      ??ProjectApp_ProcessEvent_11 & 0xFFFF
//  247   }
//  248 
//  249   // Send a message out - This event is generated by a timer
//  250   //  (setup in ProjectApp_Init()).
//  251   if ( events & PROJECTAPP_SEND_MSG_EVT )
??ProjectApp_ProcessEvent_0:
        MOV       A,R2
        MOV       C,0xE0 /* A   */.0
        JNC       ??ProjectApp_ProcessEvent_12
//  252   {
//  253     // Send "the" message
//  254     ProjectApp_SendTheMessage();
        MOV       DPTR,#`?<Constant "Hello World">`
        MOV       R4,?XSP + 0
        MOV       R5,?XSP + 1
        MOV       A,#0xc
        LCALL     ?MOVE_LONG8_XDATA_XDATA
        ; Setup parameters for call to function osal_strlen
        MOV       R2,?XSP + 0
        MOV       R3,?XSP + 1
        LCALL     `??osal_strlen::?relay`; Banked call to: osal_strlen
        ; Setup parameters for call to function AF_DataRequest
        MOV       ?V2,#0x1e
        MOV       R0,#?V2
        LCALL     ?PUSH_XSTACK_I_ONE
          CFI CFA_XSP16 add(XSP16, 25)
        MOV       ?V2,#ProjectApp_TransID & 0xff
        MOV       ?V3,#(ProjectApp_TransID >> 8) & 0xff
        MOV       R0,#?V2
        LCALL     ?PUSH_XSTACK_I_TWO
          CFI CFA_XSP16 add(XSP16, 27)
        MOV       A,#0x3
        LCALL     ?XSTACK_DISP100_8
        MOV       ?V2,R0
        MOV       ?V3,R1
        MOV       R0,#?V2
        LCALL     ?PUSH_XSTACK_I_TWO
          CFI CFA_XSP16 add(XSP16, 29)
        MOV       A,R2
        ADD       A,#0x1
        MOV       ?V2,A
        CLR       A
        ADDC      A,#0x0
        MOV       ?V3,A
        MOV       R0,#?V2
        LCALL     ?PUSH_XSTACK_I_TWO
          CFI CFA_XSP16 add(XSP16, 31)
        MOV       ?V2,#0x1
        MOV       ?V3,#0x0
        MOV       R0,#?V2
        LCALL     ?PUSH_XSTACK_I_TWO
          CFI CFA_XSP16 add(XSP16, 33)
        MOV       R1,#0x20
        MOV       R4,#ProjectApp_epDesc & 0xff
        MOV       R5,#(ProjectApp_epDesc >> 8) & 0xff
        MOV       R2,#ProjectApp_DstAddr & 0xff
        MOV       R3,#(ProjectApp_DstAddr >> 8) & 0xff
        LCALL     `??AF_DataRequest::?relay`; Banked call to: AF_DataRequest
        MOV       A,#0x9
        LCALL     ?DEALLOC_XSTACK8
          CFI CFA_XSP16 add(XSP16, 24)
//  255 
//  256     // Setup to send message again
//  257     osal_start_timerEx( ProjectApp_TaskID,
//  258                         PROJECTAPP_SEND_MSG_EVT,
//  259                         PROJECTAPP_SEND_MSG_TIMEOUT );
        ; Setup parameters for call to function osal_start_timerEx
        MOV       R4,#-0x78
        MOV       R5,#0x13
        MOV       R2,#0x1
        MOV       R3,#0x0
        MOV       DPTR,#ProjectApp_TaskID
        MOVX      A,@DPTR
        MOV       R1,A
        LCALL     `??osal_start_timerEx::?relay`; Banked call to: osal_start_timerEx
//  260 
//  261     // return unprocessed events
//  262     return (events ^ PROJECTAPP_SEND_MSG_EVT);
        MOV       A,?V0
        XRL       A,#0x1
        MOV       R2,A
        MOV       R3,?V1
        SJMP      ??ProjectApp_ProcessEvent_11
//  263   }
//  264 
//  265   
//  266 #if defined( IAR_ARMCM3_LM )
//  267   // Receive a message from the RTOS queue
//  268   if ( events & PROJECTAPP_RTOS_MSG_EVT )
//  269   {
//  270     // Process message from RTOS queue
//  271     ProjectApp_ProcessRtosMessage();
//  272 
//  273     // return unprocessed events
//  274     return (events ^ PROJECTAPP_RTOS_MSG_EVT);
//  275   }
//  276 #endif
//  277 
//  278   // Discard unknown events
//  279   return 0;
??ProjectApp_ProcessEvent_12:
        MOV       R2,#0x0
        MOV       R3,#0x0
??ProjectApp_ProcessEvent_11:
        MOV       A,#0xc
        LCALL     ?DEALLOC_XSTACK8
          CFI CFA_XSP16 add(XSP16, 12)
        MOV       R7,#0x4
        LJMP      ?BANKED_LEAVE_XDATA
//  280 }
          CFI EndBlock cfiBlock8
//  281 
//  282 
//  283 /*********************************************************************
//  284  * @fn      ProjectApp_HandleKeys
//  285  *
//  286  * @brief   Handles all key events for this device.
//  287  *
//  288  * @param   shift - true if in shift/alt.
//  289  * @param   keys - bit field for key events. Valid entries:
//  290  *                 HAL_KEY_SW_4
//  291  *                 HAL_KEY_SW_3
//  292  *                 HAL_KEY_SW_2
//  293  *                 HAL_KEY_SW_1
//  294  *
//  295  * @return  none
//  296  */

        RSEG BANKED_CODE:HUGECODE:NOROOT(0)
//  297 static void ProjectApp_HandleKeys( uint8 shift, uint8 keys )
ProjectApp_HandleKeys:
          CFI Block cfiBlock9 Using cfiCommon0
          CFI Function ProjectApp_HandleKeys
        CODE
//  298 {
        FUNCALL ProjectApp_HandleKeys, osal_strlen
        LOCFRAME ISTACK, 0, STACK
        LOCFRAME PSTACK, 0, STACK
        LOCFRAME XSTACK, 32, STACK
        LOCFRAME IOVERLAY, 0, STATIC
        LOCFRAME DOVERLAY, 0, STATIC
        ARGFRAME ISTACK, 0, STACK
        ARGFRAME PSTACK, 0, STACK
        ARGFRAME XSTACK, 32, STACK
        ARGFRAME IOVERLAY, 0, STATIC
        ARGFRAME DOVERLAY, 0, STATIC
        FUNCALL ProjectApp_HandleKeys, AF_DataRequest
        LOCFRAME ISTACK, 0, STACK
        LOCFRAME PSTACK, 0, STACK
        LOCFRAME XSTACK, 41, STACK
        LOCFRAME IOVERLAY, 0, STATIC
        LOCFRAME DOVERLAY, 0, STATIC
        ARGFRAME ISTACK, 0, STACK
        ARGFRAME PSTACK, 0, STACK
        ARGFRAME XSTACK, 41, STACK
        ARGFRAME IOVERLAY, 0, STATIC
        ARGFRAME DOVERLAY, 0, STATIC
        FUNCALL ProjectApp_HandleKeys, HalLedSet
        LOCFRAME ISTACK, 0, STACK
        LOCFRAME PSTACK, 0, STACK
        LOCFRAME XSTACK, 32, STACK
        LOCFRAME IOVERLAY, 0, STATIC
        LOCFRAME DOVERLAY, 0, STATIC
        ARGFRAME ISTACK, 0, STACK
        ARGFRAME PSTACK, 0, STACK
        ARGFRAME XSTACK, 32, STACK
        ARGFRAME IOVERLAY, 0, STATIC
        ARGFRAME DOVERLAY, 0, STATIC
        FUNCALL ProjectApp_HandleKeys, NLME_GetShortAddr
        LOCFRAME ISTACK, 0, STACK
        LOCFRAME PSTACK, 0, STACK
        LOCFRAME XSTACK, 32, STACK
        LOCFRAME IOVERLAY, 0, STATIC
        LOCFRAME DOVERLAY, 0, STATIC
        ARGFRAME ISTACK, 0, STACK
        ARGFRAME PSTACK, 0, STACK
        ARGFRAME XSTACK, 32, STACK
        ARGFRAME IOVERLAY, 0, STATIC
        ARGFRAME DOVERLAY, 0, STATIC
        FUNCALL ProjectApp_HandleKeys, ZDP_EndDeviceBindReq
        LOCFRAME ISTACK, 0, STACK
        LOCFRAME PSTACK, 0, STACK
        LOCFRAME XSTACK, 41, STACK
        LOCFRAME IOVERLAY, 0, STATIC
        LOCFRAME DOVERLAY, 0, STATIC
        ARGFRAME ISTACK, 0, STACK
        ARGFRAME PSTACK, 0, STACK
        ARGFRAME XSTACK, 41, STACK
        ARGFRAME IOVERLAY, 0, STATIC
        ARGFRAME DOVERLAY, 0, STATIC
        FUNCALL ProjectApp_HandleKeys, HalLedSet
        LOCFRAME ISTACK, 0, STACK
        LOCFRAME PSTACK, 0, STACK
        LOCFRAME XSTACK, 32, STACK
        LOCFRAME IOVERLAY, 0, STATIC
        LOCFRAME DOVERLAY, 0, STATIC
        ARGFRAME ISTACK, 0, STACK
        ARGFRAME PSTACK, 0, STACK
        ARGFRAME XSTACK, 32, STACK
        ARGFRAME IOVERLAY, 0, STATIC
        ARGFRAME DOVERLAY, 0, STATIC
        FUNCALL ProjectApp_HandleKeys, ZDP_MatchDescReq
        LOCFRAME ISTACK, 0, STACK
        LOCFRAME PSTACK, 0, STACK
        LOCFRAME XSTACK, 40, STACK
        LOCFRAME IOVERLAY, 0, STATIC
        LOCFRAME DOVERLAY, 0, STATIC
        ARGFRAME ISTACK, 0, STACK
        ARGFRAME PSTACK, 0, STACK
        ARGFRAME XSTACK, 40, STACK
        ARGFRAME IOVERLAY, 0, STATIC
        ARGFRAME DOVERLAY, 0, STATIC
        REQUIRE ?V0
        REQUIRE ?V1
        REQUIRE ?V2
        MOV       A,#-0xb
        LCALL     ?BANKED_ENTER_XDATA
          CFI DPH0 load(1, XDATA, add(CFA_XSP16, literal(-1)))
          CFI DPL0 load(1, XDATA, add(CFA_XSP16, literal(-2)))
          CFI ?BRET_EXT load(1, XDATA, add(CFA_XSP16, literal(-3)))
          CFI ?RET_HIGH load(1, XDATA, add(CFA_XSP16, literal(-4)))
          CFI ?RET_LOW load(1, XDATA, add(CFA_XSP16, literal(-5)))
          CFI R7 load(1, XDATA, add(CFA_XSP16, literal(-6)))
          CFI V2 load(1, XDATA, add(CFA_XSP16, literal(-7)))
          CFI V1 load(1, XDATA, add(CFA_XSP16, literal(-8)))
          CFI V0 load(1, XDATA, add(CFA_XSP16, literal(-9)))
          CFI VB load(1, XDATA, add(CFA_XSP16, literal(-10)))
          CFI R6 load(1, XDATA, add(CFA_XSP16, literal(-11)))
          CFI CFA_SP SP+0
          CFI CFA_XSP16 add(XSP16, 11)
        ; Saved register size: 11
        ; Auto size: 21
        MOV       A,#-0x15
        LCALL     ?ALLOC_XSTACK8
          CFI CFA_XSP16 add(XSP16, 32)
        MOV       A,R2
        MOV       R6,A
//  299   zAddrType_t dstAddr;
//  300 
//  301   // Shift is used to make each button/switch dual purpose.
//  302   if ( shift )
        MOV       A,R1
        JNZ       ??ProjectApp_HandleKeys_0
//  303   {
//  304     if ( keys & HAL_KEY_SW_1 )
//  305     {
//  306     }
//  307     if ( keys & HAL_KEY_SW_2 )
//  308     {
//  309     }
//  310     if ( keys & HAL_KEY_SW_3 )
//  311     {
//  312     }
//  313     if ( keys & HAL_KEY_SW_4 )
//  314     {
//  315     }
//  316   }
//  317   else
//  318   {
//  319     if ( keys & HAL_KEY_SW_1 )
        MOV       A,R2
        MOV       C,0xE0 /* A   */.0
        JNC       ??ProjectApp_HandleKeys_0
//  320     {
//  321     ProjectApp_SendBindcast();
        MOV       DPTR,#`?<Constant "Bind data\\r\\n">`
        MOV       A,#0x9
        LCALL     ?XSTACK_DISP102_8
        MOV       A,#0xc
        LCALL     ?MOVE_LONG8_XDATA_XDATA
        LCALL     ?Subroutine0 & 0xFFFF
??CrossCallReturnLabel_1:
        ; Setup parameters for call to function osal_strlen
        MOV       A,#0x9
        LCALL     ?XSTACK_DISP101_8
        LCALL     `??osal_strlen::?relay`; Banked call to: osal_strlen
        ; Setup parameters for call to function AF_DataRequest
        MOV       ?V0,#0x1e
        MOV       R0,#?V0
        LCALL     ?PUSH_XSTACK_I_ONE
          CFI CFA_XSP16 add(XSP16, 33)
        MOV       ?V0,#ProjectApp_TransID & 0xff
        MOV       ?V1,#(ProjectApp_TransID >> 8) & 0xff
        MOV       R0,#?V0
        LCALL     ?PUSH_XSTACK_I_TWO
          CFI CFA_XSP16 add(XSP16, 35)
        MOV       A,#0xc
        LCALL     ?XSTACK_DISP100_8
        MOV       ?V0,R0
        MOV       ?V1,R1
        MOV       R0,#?V0
        LCALL     ?PUSH_XSTACK_I_TWO
          CFI CFA_XSP16 add(XSP16, 37)
        MOV       A,R2
        ADD       A,#0x1
        MOV       ?V0,A
        CLR       A
        ADDC      A,#0x0
        MOV       ?V1,A
        MOV       R0,#?V0
        LCALL     ?PUSH_XSTACK_I_TWO
          CFI CFA_XSP16 add(XSP16, 39)
        MOV       ?V0,#0x1
        MOV       ?V1,#0x0
        MOV       R0,#?V0
        LCALL     ?PUSH_XSTACK_I_TWO
          CFI CFA_XSP16 add(XSP16, 41)
        MOV       R1,#0x20
        MOV       R4,#ProjectApp_epDesc & 0xff
        MOV       R5,#(ProjectApp_epDesc >> 8) & 0xff
        MOV       R2,#ProjectApp_DstAddr & 0xff
        MOV       R3,#(ProjectApp_DstAddr >> 8) & 0xff
        LCALL     `??AF_DataRequest::?relay`; Banked call to: AF_DataRequest
        MOV       A,#0x9
        LCALL     ?DEALLOC_XSTACK8
          CFI CFA_XSP16 add(XSP16, 32)
//  322     }
//  323 
//  324 #if defined( SWITCH1_BIND )
//  325       // we can use SW1 to simulate SW2 for devices that only have one switch,
//  326       keys |= HAL_KEY_SW_2;
//  327 #elif defined( SWITCH1_MATCH )
//  328       // or use SW1 to simulate SW4 for devices that only have one switch
//  329       keys |= HAL_KEY_SW_4;
//  330 #endif
//  331     }
//  332 
//  333     if ( keys & HAL_KEY_SW_2 )
??ProjectApp_HandleKeys_0:
        MOV       A,R6
        MOV       C,0xE0 /* A   */.1
        JNC       ??ProjectApp_HandleKeys_1
//  334     {
//  335       HalLedSet ( HAL_LED_4, HAL_LED_MODE_OFF );
        ; Setup parameters for call to function HalLedSet
        MOV       R2,#0x0
        MOV       R1,#0x8
        LCALL     `??HalLedSet::?relay`; Banked call to: HalLedSet
//  336 
//  337       // Initiate an End Device Bind Request for the mandatory endpoint
//  338       dstAddr.addrMode = Addr16Bit;
        MOV       A,#0x8
        LCALL     ?XSTACK_DISP0_8
        MOV       A,#0x2
        MOVX      @DPTR,A
//  339       dstAddr.addr.shortAddr = 0x0000; // Coordinator
        MOV       DPL,?XSP + 0
        MOV       DPH,?XSP + 1
        CLR       A
        MOVX      @DPTR,A
        INC       DPTR
        MOVX      @DPTR,A
//  340       ZDP_EndDeviceBindReq( &dstAddr, NLME_GetShortAddr(),
//  341                             ProjectApp_epDesc.endPoint,
//  342                             PROJECTAPP_PROFID,
//  343                             PROJECTAPP_MAX_CLUSTERS, (cId_t *)ProjectApp_ClusterList,
//  344                             PROJECTAPP_MAX_CLUSTERS, (cId_t *)ProjectApp_ClusterList,
//  345                             FALSE );
        ; Setup parameters for call to function NLME_GetShortAddr
        LCALL     `??NLME_GetShortAddr::?relay`; Banked call to: NLME_GetShortAddr
        MOV       ?V0,R2
        MOV       ?V1,R3
        MOV       R4,?V0
        MOV       R5,?V1
        MOV       ?V0,#ProjectApp_ClusterList & 0xff
        MOV       ?V1,#(ProjectApp_ClusterList >> 8) & 0xff
        ; Setup parameters for call to function ZDP_EndDeviceBindReq
        MOV       ?V2,#0x0
        MOV       R0,#?V2
        LCALL     ?PUSH_XSTACK_I_ONE
          CFI CFA_XSP16 add(XSP16, 33)
        MOV       R0,#?V0
        LCALL     ?PUSH_XSTACK_I_TWO
          CFI CFA_XSP16 add(XSP16, 35)
        MOV       ?V2,#0x1
        MOV       R0,#?V2
        LCALL     ?PUSH_XSTACK_I_ONE
          CFI CFA_XSP16 add(XSP16, 36)
        MOV       R0,#?V0
        LCALL     ?PUSH_XSTACK_I_TWO
          CFI CFA_XSP16 add(XSP16, 38)
        MOV       ?V0,#0x1
        MOV       R0,#?V0
        LCALL     ?PUSH_XSTACK_I_ONE
          CFI CFA_XSP16 add(XSP16, 39)
        MOV       ?V0,#0x4
        MOV       ?V1,#0xf
        MOV       R0,#?V0
        LCALL     ?PUSH_XSTACK_I_TWO
          CFI CFA_XSP16 add(XSP16, 41)
        MOV       DPTR,#ProjectApp_epDesc
        MOVX      A,@DPTR
        MOV       R1,A
        MOV       A,#0x9
        LCALL     ?XSTACK_DISP101_8
        LCALL     `??ZDP_EndDeviceBindReq::?relay`; Banked call to: ZDP_EndDeviceBindReq
        MOV       A,#0x9
        LCALL     ?DEALLOC_XSTACK8
          CFI CFA_XSP16 add(XSP16, 32)
//  346     }
//  347 
//  348     if ( keys & HAL_KEY_SW_3 )
//  349     {
//  350     }
//  351 
//  352     if ( keys & HAL_KEY_SW_4 )
??ProjectApp_HandleKeys_1:
        MOV       A,R6
        MOV       C,0xE0 /* A   */.3
        JNC       ??ProjectApp_HandleKeys_2
//  353     {
//  354       HalLedSet ( HAL_LED_4, HAL_LED_MODE_OFF );
        ; Setup parameters for call to function HalLedSet
        MOV       R2,#0x0
        MOV       R1,#0x8
        LCALL     `??HalLedSet::?relay`; Banked call to: HalLedSet
//  355       // Initiate a Match Description Request (Service Discovery)
//  356       dstAddr.addrMode = AddrBroadcast;
        MOV       A,#0x8
        LCALL     ?XSTACK_DISP0_8
        MOV       A,#0xf
        MOVX      @DPTR,A
//  357       dstAddr.addr.shortAddr = NWK_BROADCAST_SHORTADDR;
        MOV       DPL,?XSP + 0
        MOV       DPH,?XSP + 1
        MOV       A,#-0x1
        MOVX      @DPTR,A
        INC       DPTR
        MOVX      @DPTR,A
//  358       ZDP_MatchDescReq( &dstAddr, NWK_BROADCAST_SHORTADDR,
//  359                         PROJECTAPP_PROFID,
//  360                         PROJECTAPP_MAX_CLUSTERS, (cId_t *)ProjectApp_ClusterList,
//  361                         PROJECTAPP_MAX_CLUSTERS, (cId_t *)ProjectApp_ClusterList,
//  362                         FALSE );
        MOV       ?V0,#ProjectApp_ClusterList & 0xff
        MOV       ?V1,#(ProjectApp_ClusterList >> 8) & 0xff
        ; Setup parameters for call to function ZDP_MatchDescReq
        MOV       ?V2,#0x0
        MOV       R0,#?V2
        LCALL     ?PUSH_XSTACK_I_ONE
          CFI CFA_XSP16 add(XSP16, 33)
        MOV       R0,#?V0
        LCALL     ?PUSH_XSTACK_I_TWO
          CFI CFA_XSP16 add(XSP16, 35)
        MOV       ?V2,#0x1
        MOV       R0,#?V2
        LCALL     ?PUSH_XSTACK_I_ONE
          CFI CFA_XSP16 add(XSP16, 36)
        MOV       R0,#?V0
        LCALL     ?PUSH_XSTACK_I_TWO
          CFI CFA_XSP16 add(XSP16, 38)
        MOV       ?V0,#0x4
        MOV       ?V1,#0xf
        MOV       R0,#?V0
        LCALL     ?PUSH_XSTACK_I_TWO
          CFI CFA_XSP16 add(XSP16, 40)
        MOV       R1,#0x1
        MOV       R4,#-0x1
        MOV       R5,#-0x1
        MOV       A,#0x8
        LCALL     ?XSTACK_DISP101_8
        LCALL     `??ZDP_MatchDescReq::?relay`; Banked call to: ZDP_MatchDescReq
        MOV       A,#0x8
        LCALL     ?DEALLOC_XSTACK8
          CFI CFA_XSP16 add(XSP16, 32)
//  363     }
//  364   }
??ProjectApp_HandleKeys_2:
        MOV       A,#0x15
        LCALL     ?DEALLOC_XSTACK8
          CFI CFA_XSP16 add(XSP16, 11)
        MOV       R7,#0x3
        LJMP      ?BANKED_LEAVE_XDATA
          CFI EndBlock cfiBlock9

        RSEG BANKED_CODE:HUGECODE:NOROOT(0)
?Subroutine0:
          CFI Block cfiCond10 Using cfiCommon0
          CFI Function ProjectApp_Init
          CFI Conditional ??CrossCallReturnLabel_0
          CFI R6 load(1, XDATA, add(CFA_XSP16, literal(-9)))
          CFI VB load(1, XDATA, add(CFA_XSP16, literal(-8)))
          CFI V0 load(1, XDATA, add(CFA_XSP16, literal(-7)))
          CFI R7 load(1, XDATA, add(CFA_XSP16, literal(-6)))
          CFI ?RET_LOW load(1, XDATA, add(CFA_XSP16, literal(-5)))
          CFI ?RET_HIGH load(1, XDATA, add(CFA_XSP16, literal(-4)))
          CFI ?BRET_EXT load(1, XDATA, add(CFA_XSP16, literal(-3)))
          CFI DPL0 load(1, XDATA, add(CFA_XSP16, literal(-2)))
          CFI DPH0 load(1, XDATA, add(CFA_XSP16, literal(-1)))
          CFI CFA_SP SP+-2
          CFI CFA_XSP16 add(XSP16, 9)
          CFI Block cfiCond11 Using cfiCommon0
          CFI (cfiCond11) Function ProjectApp_HandleKeys
          CFI (cfiCond11) Conditional ??CrossCallReturnLabel_1
          CFI (cfiCond11) R6 load(1, XDATA, add(CFA_XSP16, literal(-11)))
          CFI (cfiCond11) VB load(1, XDATA, add(CFA_XSP16, literal(-10)))
          CFI (cfiCond11) V0 load(1, XDATA, add(CFA_XSP16, literal(-9)))
          CFI (cfiCond11) V1 load(1, XDATA, add(CFA_XSP16, literal(-8)))
          CFI (cfiCond11) V2 load(1, XDATA, add(CFA_XSP16, literal(-7)))
          CFI (cfiCond11) R7 load(1, XDATA, add(CFA_XSP16, literal(-6)))
          CFI (cfiCond11) ?RET_LOW load(1, XDATA, add(CFA_XSP16, literal(-5)))
          CFI (cfiCond11) ?RET_HIGH load(1, XDATA, add(CFA_XSP16, literal(-4)))
          CFI (cfiCond11) ?BRET_EXT load(1, XDATA, add(CFA_XSP16, literal(-3)))
          CFI (cfiCond11) DPL0 load(1, XDATA, add(CFA_XSP16, literal(-2)))
          CFI (cfiCond11) DPH0 load(1, XDATA, add(CFA_XSP16, literal(-1)))
          CFI (cfiCond11) CFA_SP SP+-2
          CFI (cfiCond11) CFA_XSP16 add(XSP16, 32)
          CFI Block cfiPicker12 Using cfiCommon1
          CFI (cfiPicker12) NoFunction
          CFI (cfiPicker12) Picker
        MOV       DPTR,#ProjectApp_DstAddr + 8
        MOVX      @DPTR,A
        INC       DPTR
        MOVX      @DPTR,A
        MOV       DPTR,#ProjectApp_DstAddr
        MOVX      @DPTR,A
        INC       DPTR
        MOVX      @DPTR,A
        RET
          CFI EndBlock cfiCond10
          CFI EndBlock cfiCond11
          CFI EndBlock cfiPicker12

        RSEG BANK_RELAYS:CODE:REORDER:NOROOT(0)
`??ProjectApp_Init::?relay`:
        CODE
        LCALL   ?BDISPATCH
        DATA24
        DC24    ProjectApp_Init

        RSEG BANK_RELAYS:CODE:REORDER:NOROOT(0)
`??ProjectApp_ProcessEvent::?relay`:
        CODE
        LCALL   ?BDISPATCH
        DATA24
        DC24    ProjectApp_ProcessEvent

        RSEG BANK_RELAYS:CODE:REORDER:NOROOT(0)
`??ProjectApp_HandleKeys::?relay`:
        CODE
        LCALL   ?BDISPATCH
        DATA24
        DC24    ProjectApp_HandleKeys

        RSEG XDATA_ROM_C:CONST:REORDER:NOROOT(0)
        DATA8
`?<Constant "Bind success!\\r\\n">`:
        DB "Bind success!\015\012"

        RSEG XDATA_ROM_C:CONST:REORDER:NOROOT(0)
        DATA8
`?<Constant "Bind failure!\\r\\n">`:
        DB "Bind failure!\015\012"

        RSEG XDATA_ROM_C:CONST:REORDER:NOROOT(0)
        DATA8
`?<Constant "Bind data\\r\\n">`:
        DB "Bind data\015\012"

        RSEG XDATA_ROM_C:CONST:REORDER:NOROOT(0)
        DATA8
`?<Constant "%s\\r\\n">`:
        DB "%s\015\012"

        RSEG XDATA_ROM_C:CONST:REORDER:NOROOT(0)
        DATA8
`?<Constant "Hello World">`:
        DB "Hello World"

        END
//  365 
//  366 
//  367 static void ProjectApp_ProcessZDOMsgs( zdoIncomingMsg_t *inMsg )//
//  368 {
//  369   switch ( inMsg->clusterID )
//  370   {
//  371     case End_Device_Bind_rsp:
//  372       if ( ZDO_ParseBindRsp( inMsg ) == ZSuccess )
//  373       {
//  374         printf("Bind success!\r\n");
//  375       }
//  376       else
//  377       {
//  378         printf("Bind failure!\r\n");
//  379       }
//  380       break;
//  381   }
//  382 }
//  383 
//  384 static void ProjectApp_SendBindcast( void )
//  385 {
//  386   char theMessageData[ ] = "Bind data\r\n";
//  387  
//  388   ProjectApp_DstAddr.addrMode       = (afAddrMode_t)AddrNotPresent;
//  389   ProjectApp_DstAddr.endPoint       = 0;
//  390   ProjectApp_DstAddr.addr.shortAddr = 0;
//  391  
//  392   AF_DataRequest( &ProjectApp_DstAddr,
//  393                   &ProjectApp_epDesc,
//  394                   PROJECTAPP_CLUSTERID,
//  395                   (byte)osal_strlen( theMessageData ) + 1,
//  396                   (byte *)&theMessageData,
//  397                   &ProjectApp_TransID,
//  398                   AF_DISCV_ROUTE,
//  399                   AF_DEFAULT_RADIUS
//  400                 );
//  401 }
//  402 
//  403 /*********************************************************************
//  404  * LOCAL FUNCTIONS
//  405  */
//  406 
//  407 /*********************************************************************
//  408  * @fn      ProjectApp_MessageMSGCB
//  409  *
//  410  * @brief   Data message processor callback.  This function processes
//  411  *          any incoming data - probably from other devices.  So, based
//  412  *          on cluster ID, perform the intended action.
//  413  *
//  414  * @param   none
//  415  *
//  416  * @return  none
//  417  */
//  418 static void ProjectApp_MessageMSGCB( afIncomingMSGPacket_t *pkt )
//  419 {
//  420   switch ( pkt->clusterId )
//  421   {
//  422     case PROJECTAPP_CLUSTERID:
//  423       printf("%s\r\n", pkt->cmd.Data);
//  424       break;
//  425   }
//  426 }
//  427 
//  428 /*********************************************************************
//  429  * @fn      ProjectApp_SendTheMessage
//  430  *
//  431  * @brief   Send "the" message.
//  432  *
//  433  * @param   none
//  434  *
//  435  * @return  none
//  436  */
//  437 static void ProjectApp_SendTheMessage( void )
//  438 {
//  439   char theMessageData[] = "Hello World";
//  440 
//  441   if ( AF_DataRequest( &ProjectApp_DstAddr, &ProjectApp_epDesc,
//  442                        PROJECTAPP_CLUSTERID,
//  443                        (byte)osal_strlen( theMessageData ) + 1,
//  444                        (byte *)&theMessageData,
//  445                        &ProjectApp_TransID,
//  446                        AF_DISCV_ROUTE, AF_DEFAULT_RADIUS ) == afStatus_SUCCESS )
//  447   {
//  448     // Successfully requested to be sent.
//  449   }
//  450   else
//  451   {
//  452     // Error occurred in request to send.
//  453   }
//  454 }
//  455 
//  456 #if defined( IAR_ARMCM3_LM )
//  457 /*********************************************************************
//  458  * @fn      ProjectApp_ProcessRtosMessage
//  459  *
//  460  * @brief   Receive message from RTOS queue, send response back.
//  461  *
//  462  * @param   none
//  463  *
//  464  * @return  none
//  465  */
//  466 static void ProjectApp_ProcessRtosMessage( void )
//  467 {
//  468   osalQueue_t inMsg;
//  469 
//  470   if ( osal_queue_receive( OsalQueue, &inMsg, 0 ) == pdPASS )
//  471   {
//  472     uint8 cmndId = inMsg.cmnd;
//  473     uint32 counter = osal_build_uint32( inMsg.cbuf, 4 );
//  474 
//  475     switch ( cmndId )
//  476     {
//  477       case CMD_INCR:
//  478         counter += 1;  /* Increment the incoming counter */
//  479                        /* Intentionally fall through next case */
//  480 
//  481       case CMD_ECHO:
//  482       {
//  483         userQueue_t outMsg;
//  484 
//  485         outMsg.resp = RSP_CODE | cmndId;  /* Response ID */
//  486         osal_buffer_uint32( outMsg.rbuf, counter );    /* Increment counter */
//  487         osal_queue_send( UserQueue1, &outMsg, 0 );  /* Send back to UserTask */
//  488         break;
//  489       }
//  490       
//  491       default:
//  492         break;  /* Ignore unknown command */    
//  493     }
//  494   }
//  495 }
//  496 #endif
//  497 
//  498 /*********************************************************************
//  499  */
// 
// 792 bytes in segment BANKED_CODE
//  18 bytes in segment BANK_RELAYS
//  75 bytes in segment XDATA_ROM_C
//  21 bytes in segment XDATA_Z
// 
//  18 bytes of CODE     memory
//  75 bytes of CONST    memory
// 792 bytes of HUGECODE memory
//  21 bytes of XDATA    memory
//
//Errors: none
//Warnings: none
