///////////////////////////////////////////////////////////////////////////////
//
// IAR C/C++ Compiler V10.30.1.6000 for 8051              27/Jul/2019  11:10:03
// Copyright 2004-2018 IAR Systems AB.
// PC-locked license - IAR Embedded Workbench for 8051
//
//    Core               =  plain
//    Code model         =  banked
//    Data model         =  large
//    Calling convention =  xdata reentrant
//    Constant location  =  data_rom
//    Dptr setup         =  1,16
//                          
//    Source file        =  
//        E:\GitHub\DHT11-end-device\ZStack-CC2530-2.5.1a\Projects\zstack\Samples\ProjectApp\Source\ProjectApp.c
//    Command line       =  
//        -f C:\Users\Admin\AppData\Local\Temp\EWCF30.tmp
//        (E:\GitHub\DHT11-end-device\ZStack-CC2530-2.5.1a\Projects\zstack\Samples\ProjectApp\Source\ProjectApp.c
//        -D NWK_AUTO_POLL -D ZTOOL_P1 -D xMT_TASK -D xMT_SYS_FUNC -D
//        xMT_ZDO_FUNC -D xLCD_SUPPORTED=DEBUG -D HAL_LCD=FALSE -D
//        xPOWER_SAVING -lC
//        E:\GitHub\DHT11-end-device\ZStack-CC2530-2.5.1a\Projects\zstack\Samples\ProjectApp\CC2530DB\EndDeviceEB\List
//        -lA
//        E:\GitHub\DHT11-end-device\ZStack-CC2530-2.5.1a\Projects\zstack\Samples\ProjectApp\CC2530DB\EndDeviceEB\List
//        --diag_suppress Pe001,Pa010 -o
//        E:\GitHub\DHT11-end-device\ZStack-CC2530-2.5.1a\Projects\zstack\Samples\ProjectApp\CC2530DB\EndDeviceEB\Obj
//        -e --debug --core=plain --dptr=16,1 --data_model=large
//        --code_model=banked --calling_convention=xdata_reentrant
//        --place_constants=data_rom --nr_virtual_regs 8 -f
//        E:\GitHub\DHT11-end-device\ZStack-CC2530-2.5.1a\Projects\zstack\Samples\ProjectApp\CC2530DB\..\..\..\Tools\CC2530DB\f8wEndev.cfg
//        (-DCPU32MHZ -DROOT=__near_func -DMAC_CFG_TX_DATA_MAX=3
//        -DMAC_CFG_TX_MAX=6 -DMAC_CFG_RX_MAX=3) -f
//        E:\GitHub\DHT11-end-device\ZStack-CC2530-2.5.1a\Projects\zstack\Samples\ProjectApp\CC2530DB\..\..\..\Tools\CC2530DB\f8wConfig.cfg
//        (-DZIGBEEPRO -DSECURE=0 -DZG_SECURE_DYNAMIC=0 -DREFLECTOR
//        -DDEFAULT_CHANLIST=0x00000800 -DZDAPP_CONFIG_PAN_ID=0xFFFF
//        -DNWK_START_DELAY=100 -DEXTENDED_JOINING_RANDOM_MASK=0x007F
//        -DBEACON_REQUEST_DELAY=100 -DBEACON_REQ_DELAY_MASK=0x00FF
//        -DLINK_STATUS_JITTER_MASK=0x007F -DROUTE_EXPIRY_TIME=30
//        -DAPSC_ACK_WAIT_DURATION_POLLED=3000 -DNWK_INDIRECT_MSG_TIMEOUT=7
//        -DMAX_RREQ_ENTRIES=8 -DAPSC_MAX_FRAME_RETRIES=3
//        -DNWK_MAX_DATA_RETRIES=2 -DMAX_POLL_FAILURE_RETRIES=2 -DMAX_BCAST=9
//        -DAPS_MAX_GROUPS=16 -DMAX_RTG_ENTRIES=40 -DNWK_MAX_BINDING_ENTRIES=4
//        -DMAX_BINDING_CLUSTER_IDS=4 "-DDEFAULT_KEY={0x01, 0x03, 0x05, 0x07,
//        0x09, 0x0B, 0x0D, 0x0F, 0x00, 0x02, 0x04, 0x06, 0x08, 0x0A, 0x0C,
//        0x0D}" -DMAC_MAX_FRAME_SIZE=116 -DZDNWKMGR_MIN_TRANSMISSIONS=20
//        "-DCONST=const __code" -DGENERIC=__generic -DRFD_RCVC_ALWAYS_ON=FALSE
//        -DPOLL_RATE=1000 -DQUEUED_POLL_RATE=100 -DRESPONSE_POLL_RATE=100
//        -DREJOIN_POLL_RATE=440) -I
//        E:\GitHub\DHT11-end-device\ZStack-CC2530-2.5.1a\Projects\zstack\Samples\ProjectApp\CC2530DB\
//        -I
//        E:\GitHub\DHT11-end-device\ZStack-CC2530-2.5.1a\Projects\zstack\Samples\ProjectApp\CC2530DB\..\Source\
//        -I
//        E:\GitHub\DHT11-end-device\ZStack-CC2530-2.5.1a\Projects\zstack\Samples\ProjectApp\CC2530DB\..\..\..\ZMain\TI2530DB\
//        -I
//        E:\GitHub\DHT11-end-device\ZStack-CC2530-2.5.1a\Projects\zstack\Samples\ProjectApp\CC2530DB\..\..\..\..\..\Components\hal\include\
//        -I
//        E:\GitHub\DHT11-end-device\ZStack-CC2530-2.5.1a\Projects\zstack\Samples\ProjectApp\CC2530DB\..\..\..\..\..\Components\hal\target\CC2530EB\
//        -I
//        E:\GitHub\DHT11-end-device\ZStack-CC2530-2.5.1a\Projects\zstack\Samples\ProjectApp\CC2530DB\..\..\..\..\..\Components\mac\include\
//        -I
//        E:\GitHub\DHT11-end-device\ZStack-CC2530-2.5.1a\Projects\zstack\Samples\ProjectApp\CC2530DB\..\..\..\..\..\Components\mac\high_level\
//        -I
//        E:\GitHub\DHT11-end-device\ZStack-CC2530-2.5.1a\Projects\zstack\Samples\ProjectApp\CC2530DB\..\..\..\..\..\Components\mac\low_level\srf04\
//        -I
//        E:\GitHub\DHT11-end-device\ZStack-CC2530-2.5.1a\Projects\zstack\Samples\ProjectApp\CC2530DB\..\..\..\..\..\Components\mac\low_level\srf04\single_chip\
//        -I
//        E:\GitHub\DHT11-end-device\ZStack-CC2530-2.5.1a\Projects\zstack\Samples\ProjectApp\CC2530DB\..\..\..\..\..\Components\mt\
//        -I
//        E:\GitHub\DHT11-end-device\ZStack-CC2530-2.5.1a\Projects\zstack\Samples\ProjectApp\CC2530DB\..\..\..\..\..\Components\osal\include\
//        -I
//        E:\GitHub\DHT11-end-device\ZStack-CC2530-2.5.1a\Projects\zstack\Samples\ProjectApp\CC2530DB\..\..\..\..\..\Components\services\saddr\
//        -I
//        E:\GitHub\DHT11-end-device\ZStack-CC2530-2.5.1a\Projects\zstack\Samples\ProjectApp\CC2530DB\..\..\..\..\..\Components\services\sdata\
//        -I
//        E:\GitHub\DHT11-end-device\ZStack-CC2530-2.5.1a\Projects\zstack\Samples\ProjectApp\CC2530DB\..\..\..\..\..\Components\stack\af\
//        -I
//        E:\GitHub\DHT11-end-device\ZStack-CC2530-2.5.1a\Projects\zstack\Samples\ProjectApp\CC2530DB\..\..\..\..\..\Components\stack\nwk\
//        -I
//        E:\GitHub\DHT11-end-device\ZStack-CC2530-2.5.1a\Projects\zstack\Samples\ProjectApp\CC2530DB\..\..\..\..\..\Components\stack\sapi\
//        -I
//        E:\GitHub\DHT11-end-device\ZStack-CC2530-2.5.1a\Projects\zstack\Samples\ProjectApp\CC2530DB\..\..\..\..\..\Components\stack\sec\
//        -I
//        E:\GitHub\DHT11-end-device\ZStack-CC2530-2.5.1a\Projects\zstack\Samples\ProjectApp\CC2530DB\..\..\..\..\..\Components\stack\sys\
//        -I
//        E:\GitHub\DHT11-end-device\ZStack-CC2530-2.5.1a\Projects\zstack\Samples\ProjectApp\CC2530DB\..\..\..\..\..\Components\stack\zdo\
//        -I
//        E:\GitHub\DHT11-end-device\ZStack-CC2530-2.5.1a\Projects\zstack\Samples\ProjectApp\CC2530DB\..\..\..\..\..\Components\zmac\
//        -I
//        E:\GitHub\DHT11-end-device\ZStack-CC2530-2.5.1a\Projects\zstack\Samples\ProjectApp\CC2530DB\..\..\..\..\..\Components\zmac\f8w\
//        -Ohz --require_prototypes --no_code_motion)
//    Locale             =  Chinese (Simplified)_CHN.936
//    List file          =  
//        E:\GitHub\DHT11-end-device\ZStack-CC2530-2.5.1a\Projects\zstack\Samples\ProjectApp\CC2530DB\EndDeviceEB\List\ProjectApp.s51
//
///////////////////////////////////////////////////////////////////////////////

        NAME ProjectApp

        RTMODEL "__SystemLibrary", "CLib"
        RTMODEL "__calling_convention", "xdata_reentrant"
        RTMODEL "__code_model", "banked"
        RTMODEL "__core", "plain"
        RTMODEL "__data_model", "large"
        RTMODEL "__dptr_size", "16"
        RTMODEL "__extended_stack", "disabled"
        RTMODEL "__iar_require _formatted_write", "floats,widths"
        RTMODEL "__location_for_constants", "data"
        RTMODEL "__number_of_dptrs", "1"
        RTMODEL "__register_banks", "*"
        RTMODEL "__rt_version", "1"

        RSEG DOVERLAY:DATA:NOROOT(0)
        RSEG IOVERLAY:IDATA:NOROOT(0)
        RSEG ISTACK:IDATA:NOROOT(0)
        RSEG PSTACK:XDATA:NOROOT(0)
        RSEG XSTACK:XDATA:NOROOT(0)

        EXTERN ?V0
        EXTERN ?V1
        EXTERN ?V2
        EXTERN ?V3
        EXTERN ?V4
        EXTERN ?V6
        EXTERN ?V7
        EXTERN ?ALLOC_XSTACK8
        EXTERN ?BANKED_ENTER_XDATA
        EXTERN ?BANKED_LEAVE_XDATA
        EXTERN ?BDISPATCH
        EXTERN ?DEALLOC_XSTACK8
        EXTERN ?PUSH_XSTACK8_X_TWO
        EXTERN ?PUSH_XSTACK_I_FOUR
        EXTERN ?PUSH_XSTACK_I_ONE
        EXTERN ?PUSH_XSTACK_I_TWO
        EXTERN ?XSP
        EXTERN ?XSTACK_DISP0_8
        EXTERN ?XSTACK_DISP100_8
        EXTERN ?XSTACK_DISP101_8
        EXTERN __INIT_XDATA_Z

        PUBLIC `??ProjectApp_Init::?relay`
        FUNCTION `??ProjectApp_Init::?relay`,0203H
        PUBLIC `??ProjectApp_ProcessEvent::?relay`
        FUNCTION `??ProjectApp_ProcessEvent::?relay`,0203H
        PUBLIC ProjectApp_ClusterList
        PUBLIC ProjectApp_DstAddr
        PUBLIC ProjectApp_Init
        FUNCTION ProjectApp_Init,021203H
        ARGFRAME XSTACK, 0, STACK
        LOCFRAME XSTACK, 9, STACK
        PUBLIC ProjectApp_NwkState
        PUBLIC ProjectApp_ProcessEvent
        FUNCTION ProjectApp_ProcessEvent,0a1203H
        ARGFRAME XSTACK, 0, STACK
        LOCFRAME XSTACK, 78, STACK
        PUBLIC ProjectApp_SimpleDesc
        PUBLIC ProjectApp_TaskID
        PUBLIC ProjectApp_TransID
        PUBLIC ProjectApp_epDesc
        
          CFI Names cfiNames0
          CFI StackFrame CFA_SP SP IDATA
          CFI StackFrame CFA_PSP16 PSP16 XDATA
          CFI StackFrame CFA_XSP16 XSP16 XDATA
          CFI StaticOverlayFrame CFA_IOVERLAY IOVERLAY
          CFI StaticOverlayFrame CFA_DOVERLAY DOVERLAY
          CFI Resource `PSW.CY`:1, `B.BR0`:1, `B.BR1`:1, `B.BR2`:1, `B.BR3`:1
          CFI Resource `B.BR4`:1, `B.BR5`:1, `B.BR6`:1, `B.BR7`:1, `VB.BR8`:1
          CFI Resource `VB.BR9`:1, `VB.BR10`:1, `VB.BR11`:1, `VB.BR12`:1
          CFI Resource `VB.BR13`:1, `VB.BR14`:1, `VB.BR15`:1, VB:8, B:8, A:8
          CFI Resource PSW:8, DPL0:8, DPH0:8, R0:8, R1:8, R2:8, R3:8, R4:8, R5:8
          CFI Resource R6:8, R7:8, V0:8, V1:8, V2:8, V3:8, V4:8, V5:8, V6:8, V7:8
          CFI Resource SP:8, PSPH:8, PSPL:8, PSP16:16, XSPH:8, XSPL:8, XSP16:16
          CFI VirtualResource ?RET:24
          CFI Resource ?BRET_EXT:8
          CFI VirtualResource ?RET_HIGH:8, ?RET_LOW:8
          CFI ResourceParts PSP16 PSPH, PSPL
          CFI ResourceParts XSP16 XSPH, XSPL
          CFI ResourceParts ?RET ?BRET_EXT, ?RET_HIGH, ?RET_LOW
          CFI EndNames cfiNames0
        
          CFI Common cfiCommon0 Using cfiNames0
          CFI CodeAlign 1
          CFI DataAlign -1
          CFI ReturnAddress ?RET CODE
          CFI CFA_DOVERLAY Used
          CFI CFA_IOVERLAY Used
          CFI CFA_SP SP+-3
          CFI CFA_PSP16 PSP16+0
          CFI CFA_XSP16 XSP16+0
          CFI `PSW.CY` SameValue
          CFI `B.BR0` SameValue
          CFI `B.BR1` SameValue
          CFI `B.BR2` SameValue
          CFI `B.BR3` SameValue
          CFI `B.BR4` SameValue
          CFI `B.BR5` SameValue
          CFI `B.BR6` SameValue
          CFI `B.BR7` SameValue
          CFI `VB.BR8` SameValue
          CFI `VB.BR9` SameValue
          CFI `VB.BR10` SameValue
          CFI `VB.BR11` SameValue
          CFI `VB.BR12` SameValue
          CFI `VB.BR13` SameValue
          CFI `VB.BR14` SameValue
          CFI `VB.BR15` SameValue
          CFI VB SameValue
          CFI B Undefined
          CFI A Undefined
          CFI PSW SameValue
          CFI DPL0 SameValue
          CFI DPH0 SameValue
          CFI R0 Undefined
          CFI R1 Undefined
          CFI R2 Undefined
          CFI R3 Undefined
          CFI R4 Undefined
          CFI R5 Undefined
          CFI R6 SameValue
          CFI R7 SameValue
          CFI V0 SameValue
          CFI V1 SameValue
          CFI V2 SameValue
          CFI V3 SameValue
          CFI V4 SameValue
          CFI V5 SameValue
          CFI V6 SameValue
          CFI V7 SameValue
          CFI PSPH Undefined
          CFI PSPL Undefined
          CFI XSPH Undefined
          CFI XSPL Undefined
          CFI ?RET Concat
          CFI ?BRET_EXT Frame(CFA_SP, 3)
          CFI ?RET_HIGH Frame(CFA_SP, 2)
          CFI ?RET_LOW Frame(CFA_SP, 1)
          CFI EndCommon cfiCommon0
        
        
          CFI Common cfiCommon1 Using cfiNames0
          CFI CodeAlign 1
          CFI DataAlign -1
          CFI ReturnAddress ?RET CODE
          CFI CFA_DOVERLAY Used
          CFI CFA_IOVERLAY Used
          CFI CFA_SP SP+-2
          CFI CFA_PSP16 PSP16+0
          CFI CFA_XSP16 XSP16+0
          CFI `PSW.CY` SameValue
          CFI `B.BR0` SameValue
          CFI `B.BR1` SameValue
          CFI `B.BR2` SameValue
          CFI `B.BR3` SameValue
          CFI `B.BR4` SameValue
          CFI `B.BR5` SameValue
          CFI `B.BR6` SameValue
          CFI `B.BR7` SameValue
          CFI `VB.BR8` SameValue
          CFI `VB.BR9` SameValue
          CFI `VB.BR10` SameValue
          CFI `VB.BR11` SameValue
          CFI `VB.BR12` SameValue
          CFI `VB.BR13` SameValue
          CFI `VB.BR14` SameValue
          CFI `VB.BR15` SameValue
          CFI VB SameValue
          CFI B SameValue
          CFI A SameValue
          CFI PSW SameValue
          CFI DPL0 SameValue
          CFI DPH0 SameValue
          CFI R0 SameValue
          CFI R1 SameValue
          CFI R2 SameValue
          CFI R3 SameValue
          CFI R4 SameValue
          CFI R5 SameValue
          CFI R6 SameValue
          CFI R7 SameValue
          CFI V0 SameValue
          CFI V1 SameValue
          CFI V2 SameValue
          CFI V3 SameValue
          CFI V4 SameValue
          CFI V5 SameValue
          CFI V6 SameValue
          CFI V7 SameValue
          CFI PSPH Undefined
          CFI PSPL Undefined
          CFI XSPH Undefined
          CFI XSPL Undefined
          CFI ?RET Concat
          CFI ?BRET_EXT SameValue
          CFI ?RET_HIGH Frame(CFA_SP, 2)
          CFI ?RET_LOW Frame(CFA_SP, 1)
          CFI EndCommon cfiCommon1
        
AF_DataRequest      SYMBOL "AF_DataRequest"
`??AF_DataRequest::?relay` SYMBOL "?relay", AF_DataRequest
HalLedSet           SYMBOL "HalLedSet"
`??HalLedSet::?relay` SYMBOL "?relay", HalLedSet
NLME_GetShortAddr   SYMBOL "NLME_GetShortAddr"
`??NLME_GetShortAddr::?relay` SYMBOL "?relay", NLME_GetShortAddr
RegisterForKeys     SYMBOL "RegisterForKeys"
`??RegisterForKeys::?relay` SYMBOL "?relay", RegisterForKeys
SHT2x_GetTempPoll   SYMBOL "SHT2x_GetTempPoll"
`??SHT2x_GetTempPoll::?relay` SYMBOL "?relay", SHT2x_GetTempPoll
SHT2x_Init          SYMBOL "SHT2x_Init"
`??SHT2x_Init::?relay` SYMBOL "?relay", SHT2x_Init
USER_Uart0_Init     SYMBOL "USER_Uart0_Init"
`??USER_Uart0_Init::?relay` SYMBOL "?relay", USER_Uart0_Init
ZDO_RegisterForZDOMsg SYMBOL "ZDO_RegisterForZDOMsg"
`??ZDO_RegisterForZDOMsg::?relay` SYMBOL "?relay", ZDO_RegisterForZDOMsg
ZDP_EndDeviceBindReq SYMBOL "ZDP_EndDeviceBindReq"
`??ZDP_EndDeviceBindReq::?relay` SYMBOL "?relay", ZDP_EndDeviceBindReq
ZDP_MatchDescReq    SYMBOL "ZDP_MatchDescReq"
`??ZDP_MatchDescReq::?relay` SYMBOL "?relay", ZDP_MatchDescReq
afRegister          SYMBOL "afRegister"
`??afRegister::?relay` SYMBOL "?relay", afRegister
osal_msg_deallocate SYMBOL "osal_msg_deallocate"
`??osal_msg_deallocate::?relay` SYMBOL "?relay", osal_msg_deallocate
osal_msg_receive    SYMBOL "osal_msg_receive"
`??osal_msg_receive::?relay` SYMBOL "?relay", osal_msg_receive
osal_rand           SYMBOL "osal_rand"
`??osal_rand::?relay` SYMBOL "?relay", osal_rand
osal_start_timerEx  SYMBOL "osal_start_timerEx"
`??osal_start_timerEx::?relay` SYMBOL "?relay", osal_start_timerEx
printf              SYMBOL "printf"
`??printf::?relay`  SYMBOL "?relay", printf
sprintf             SYMBOL "sprintf"
`??sprintf::?relay` SYMBOL "?relay", sprintf
strlen              SYMBOL "strlen"
`??strlen::?relay`  SYMBOL "?relay", strlen
user_state_change   SYMBOL "user_state_change"
`??user_state_change::?relay` SYMBOL "?relay", user_state_change
ProjectApp_Init     SYMBOL "ProjectApp_Init"
`??ProjectApp_Init::?relay` SYMBOL "?relay", ProjectApp_Init
ProjectApp_ProcessEvent SYMBOL "ProjectApp_ProcessEvent"
`??ProjectApp_ProcessEvent::?relay` SYMBOL "?relay", ProjectApp_ProcessEvent

        EXTERN `??AF_DataRequest::?relay`
        FUNCTION `??AF_DataRequest::?relay`,00H
        EXTERN `??HalLedSet::?relay`
        FUNCTION `??HalLedSet::?relay`,00H
        EXTERN `??NLME_GetShortAddr::?relay`
        FUNCTION `??NLME_GetShortAddr::?relay`,00H
        EXTERN `??RegisterForKeys::?relay`
        FUNCTION `??RegisterForKeys::?relay`,00H
        EXTERN `??SHT2x_GetTempPoll::?relay`
        FUNCTION `??SHT2x_GetTempPoll::?relay`,00H
        EXTERN `??SHT2x_Init::?relay`
        FUNCTION `??SHT2x_Init::?relay`,00H
        EXTERN `??USER_Uart0_Init::?relay`
        FUNCTION `??USER_Uart0_Init::?relay`,00H
        EXTERN `??ZDO_RegisterForZDOMsg::?relay`
        FUNCTION `??ZDO_RegisterForZDOMsg::?relay`,00H
        EXTERN `??ZDP_EndDeviceBindReq::?relay`
        FUNCTION `??ZDP_EndDeviceBindReq::?relay`,00H
        EXTERN `??ZDP_MatchDescReq::?relay`
        FUNCTION `??ZDP_MatchDescReq::?relay`,00H
        EXTERN `??afRegister::?relay`
        FUNCTION `??afRegister::?relay`,00H
        EXTERN `??osal_msg_deallocate::?relay`
        FUNCTION `??osal_msg_deallocate::?relay`,00H
        EXTERN `??osal_msg_receive::?relay`
        FUNCTION `??osal_msg_receive::?relay`,00H
        EXTERN `??osal_rand::?relay`
        FUNCTION `??osal_rand::?relay`,00H
        EXTERN `??osal_start_timerEx::?relay`
        FUNCTION `??osal_start_timerEx::?relay`,00H
        EXTERN `??printf::?relay`
        FUNCTION `??printf::?relay`,00H
        EXTERN `??sprintf::?relay`
        FUNCTION `??sprintf::?relay`,00H
        EXTERN `??strlen::?relay`
        FUNCTION `??strlen::?relay`,00H
        EXTERN `??user_state_change::?relay`
        FUNCTION `??user_state_change::?relay`,00H
        EXTERN AF_DataRequest
        FUNCTION AF_DataRequest,0202H
        ARGFRAME ISTACK, 0, STACK
        ARGFRAME PSTACK, 0, STACK
        ARGFRAME XSTACK, 78, STACK
        ARGFRAME IOVERLAY, 0, STATIC
        ARGFRAME DOVERLAY, 0, STATIC
        EXTERN HalLedSet
        FUNCTION HalLedSet,0202H
        ARGFRAME ISTACK, 0, STACK
        ARGFRAME PSTACK, 0, STACK
        ARGFRAME XSTACK, 69, STACK
        ARGFRAME IOVERLAY, 0, STATIC
        ARGFRAME DOVERLAY, 0, STATIC
        EXTERN NLME_GetShortAddr
        FUNCTION NLME_GetShortAddr,0202H
        ARGFRAME ISTACK, 0, STACK
        ARGFRAME PSTACK, 0, STACK
        ARGFRAME XSTACK, 69, STACK
        ARGFRAME IOVERLAY, 0, STATIC
        ARGFRAME DOVERLAY, 0, STATIC
        EXTERN RegisterForKeys
        FUNCTION RegisterForKeys,0202H
        ARGFRAME ISTACK, 0, STACK
        ARGFRAME PSTACK, 0, STACK
        ARGFRAME XSTACK, 9, STACK
        ARGFRAME IOVERLAY, 0, STATIC
        ARGFRAME DOVERLAY, 0, STATIC
        EXTERN SHT2x_GetTempPoll
        FUNCTION SHT2x_GetTempPoll,0202H
        ARGFRAME ISTACK, 0, STACK
        ARGFRAME PSTACK, 0, STACK
        ARGFRAME XSTACK, 69, STACK
        ARGFRAME IOVERLAY, 0, STATIC
        ARGFRAME DOVERLAY, 0, STATIC
        EXTERN SHT2x_Init
        FUNCTION SHT2x_Init,0202H
        ARGFRAME ISTACK, 0, STACK
        ARGFRAME PSTACK, 0, STACK
        ARGFRAME XSTACK, 9, STACK
        ARGFRAME IOVERLAY, 0, STATIC
        ARGFRAME DOVERLAY, 0, STATIC
        EXTERN USER_Uart0_Init
        FUNCTION USER_Uart0_Init,0202H
        ARGFRAME ISTACK, 0, STACK
        ARGFRAME PSTACK, 0, STACK
        ARGFRAME XSTACK, 9, STACK
        ARGFRAME IOVERLAY, 0, STATIC
        ARGFRAME DOVERLAY, 0, STATIC
        EXTERN ZDO_RegisterForZDOMsg
        FUNCTION ZDO_RegisterForZDOMsg,0202H
        ARGFRAME ISTACK, 0, STACK
        ARGFRAME PSTACK, 0, STACK
        ARGFRAME XSTACK, 9, STACK
        ARGFRAME IOVERLAY, 0, STATIC
        ARGFRAME DOVERLAY, 0, STATIC
        EXTERN ZDP_EndDeviceBindReq
        FUNCTION ZDP_EndDeviceBindReq,0202H
        ARGFRAME ISTACK, 0, STACK
        ARGFRAME PSTACK, 0, STACK
        ARGFRAME XSTACK, 78, STACK
        ARGFRAME IOVERLAY, 0, STATIC
        ARGFRAME DOVERLAY, 0, STATIC
        EXTERN ZDP_MatchDescReq
        FUNCTION ZDP_MatchDescReq,0202H
        ARGFRAME ISTACK, 0, STACK
        ARGFRAME PSTACK, 0, STACK
        ARGFRAME XSTACK, 77, STACK
        ARGFRAME IOVERLAY, 0, STATIC
        ARGFRAME DOVERLAY, 0, STATIC
        EXTERN afRegister
        FUNCTION afRegister,0202H
        ARGFRAME ISTACK, 0, STACK
        ARGFRAME PSTACK, 0, STACK
        ARGFRAME XSTACK, 9, STACK
        ARGFRAME IOVERLAY, 0, STATIC
        ARGFRAME DOVERLAY, 0, STATIC
        EXTERN osal_msg_deallocate
        FUNCTION osal_msg_deallocate,0202H
        ARGFRAME ISTACK, 0, STACK
        ARGFRAME PSTACK, 0, STACK
        ARGFRAME XSTACK, 69, STACK
        ARGFRAME IOVERLAY, 0, STATIC
        ARGFRAME DOVERLAY, 0, STATIC
        EXTERN osal_msg_receive
        FUNCTION osal_msg_receive,0202H
        ARGFRAME ISTACK, 0, STACK
        ARGFRAME PSTACK, 0, STACK
        ARGFRAME XSTACK, 69, STACK
        ARGFRAME IOVERLAY, 0, STATIC
        ARGFRAME DOVERLAY, 0, STATIC
        EXTERN osal_rand
        FUNCTION osal_rand,0202H
        ARGFRAME ISTACK, 0, STACK
        ARGFRAME PSTACK, 0, STACK
        ARGFRAME XSTACK, 69, STACK
        ARGFRAME IOVERLAY, 0, STATIC
        ARGFRAME DOVERLAY, 0, STATIC
        EXTERN osal_start_timerEx
        FUNCTION osal_start_timerEx,0202H
        ARGFRAME ISTACK, 0, STACK
        ARGFRAME PSTACK, 0, STACK
        ARGFRAME XSTACK, 69, STACK
        ARGFRAME IOVERLAY, 0, STATIC
        ARGFRAME DOVERLAY, 0, STATIC
        EXTERN printf
        FUNCTION printf,0202H
        ARGFRAME ISTACK, 0, STACK
        ARGFRAME PSTACK, 0, STACK
        ARGFRAME XSTACK, 71, STACK
        ARGFRAME IOVERLAY, 0, STATIC
        ARGFRAME DOVERLAY, 0, STATIC
        EXTERN sprintf
        FUNCTION sprintf,0202H
        ARGFRAME ISTACK, 0, STACK
        ARGFRAME PSTACK, 0, STACK
        ARGFRAME XSTACK, 73, STACK
        ARGFRAME IOVERLAY, 0, STATIC
        ARGFRAME DOVERLAY, 0, STATIC
        EXTERN strlen
        FUNCTION strlen,010202H
        ARGFRAME ISTACK, 0, STACK
        ARGFRAME PSTACK, 0, STACK
        ARGFRAME XSTACK, 69, STACK
        ARGFRAME IOVERLAY, 0, STATIC
        ARGFRAME DOVERLAY, 0, STATIC
        EXTERN user_state_change
        FUNCTION user_state_change,0202H
        ARGFRAME ISTACK, 0, STACK
        ARGFRAME PSTACK, 0, STACK
        ARGFRAME XSTACK, 69, STACK
        ARGFRAME IOVERLAY, 0, STATIC
        ARGFRAME DOVERLAY, 0, STATIC

// E:\GitHub\DHT11-end-device\ZStack-CC2530-2.5.1a\Projects\zstack\Samples\ProjectApp\Source\ProjectApp.c
//    1 #include "OSAL.h"
//    2 #include "AF.h"
//    3 #include "ZDApp.h"
//    4 #include "ZDObject.h"
//    5 #include "ZDProfile.h"
//    6 
//    7 #include "stdio.h"
//    8 #include "string.h"
//    9 #include "math.h"
//   10 //#include "DHT11.h"
//   11 #include "ProjectApp.h"
//   12 #include "DebugTrace.h"
//   13 #include "sht2x.h"
//   14 
//   15 #if !defined( WIN32 )
//   16   #include "OnBoard.h"
//   17 #endif
//   18 
//   19 /* HAL */
//   20 #include "hal_lcd.h"
//   21 #include "hal_led.h"
//   22 #include "hal_key.h"
//   23 #include "hal_uart.h"
//   24 
//   25 /* RTOS */
//   26 #if defined( IAR_ARMCM3_LM )
//   27 #include "RTOS_App.h"
//   28 #endif  
//   29 
//   30 #include "user_uart0.h"
//   31 #include "user_printf.h"
//   32 #include "user_api.h"
//   33 /*********************************************************************
//   34  * MACROS
//   35  */
//   36 
//   37 /*********************************************************************
//   38  * CONSTANTS
//   39  */
//   40 
//   41 /*********************************************************************
//   42  * TYPEDEFS
//   43  */
//   44 
//   45 /*********************************************************************
//   46  * GLOBAL VARIABLES
//   47  */
//   48 // This list should be filled with Application specific Cluster IDs.

        RSEG XDATA_ROM_C:CONST:REORDER:NOROOT(0)
        DATA16
//   49 const cId_t ProjectApp_ClusterList[PROJECTAPP_MAX_CLUSTERS] =
ProjectApp_ClusterList:
        DW 1
//   50 {
//   51   PROJECTAPP_CLUSTERID
//   52 };
//   53 

        RSEG XDATA_ROM_C:CONST:REORDER:NOROOT(0)
        DATA8
//   54 const SimpleDescriptionFormat_t ProjectApp_SimpleDesc =
ProjectApp_SimpleDesc:
        DB 10
        DATA16
        DW 3844
        DW 1
        DATA8
        DB 0
        DB 1
        DATA16
        DW ProjectApp_ClusterList
        DATA8
        DB 1
        DATA16
        DW ProjectApp_ClusterList
//   55 {
//   56   PROJECTAPP_ENDPOINT,              //  int Endpoint;
//   57   PROJECTAPP_PROFID,                //  uint16 AppProfId[2];
//   58   PROJECTAPP_DEVICEID,              //  uint16 AppDeviceId[2];
//   59   PROJECTAPP_DEVICE_VERSION,        //  int   AppDevVer:4;
//   60   PROJECTAPP_FLAGS,                 //  int   AppFlags:4;
//   61   PROJECTAPP_MAX_CLUSTERS,          //  byte  AppNumInClusters;
//   62   (cId_t *)ProjectApp_ClusterList,  //  byte *pAppInClusterList;
//   63   PROJECTAPP_MAX_CLUSTERS,          //  byte  AppNumInClusters;
//   64   (cId_t *)ProjectApp_ClusterList   //  byte *pAppInClusterList;
//   65 };
//   66 
//   67 // This is the Endpoint/Interface description.  It is defined here, but
//   68 // filled-in in ProjectApp_Init().  Another way to go would be to fill
//   69 // in the structure here and make it a "const" (in code space).  The
//   70 // way it's defined in this sample app it is define in RAM.

        RSEG XDATA_Z:XDATA:NOROOT(0)
        DATA8
//   71 endPointDesc_t ProjectApp_epDesc;
ProjectApp_epDesc:
        DS 6
        REQUIRE __INIT_XDATA_Z
//   72 
//   73 /*********************************************************************
//   74  * EXTERNAL VARIABLES
//   75  */
//   76 
//   77 /*********************************************************************
//   78  * EXTERNAL FUNCTIONS
//   79  */
//   80 
//   81 /*********************************************************************
//   82  * LOCAL VARIABLES
//   83  */

        RSEG XDATA_Z:XDATA:NOROOT(0)
        DATA8
//   84 byte ProjectApp_TaskID;   // Task ID for internal task/event processing
ProjectApp_TaskID:
        DS 1
        REQUIRE __INIT_XDATA_Z
//   85                           // This variable will be received when
//   86                           // ProjectApp_Init() is called.

        RSEG XDATA_Z:XDATA:NOROOT(0)
        DATA8
//   87 devStates_t ProjectApp_NwkState;
ProjectApp_NwkState:
        DS 1
        REQUIRE __INIT_XDATA_Z
//   88 
//   89 

        RSEG XDATA_Z:XDATA:NOROOT(0)
        DATA8
//   90 byte ProjectApp_TransID;  // This is the unique message ID (counter)
ProjectApp_TransID:
        DS 1
        REQUIRE __INIT_XDATA_Z
//   91 

        RSEG XDATA_Z:XDATA:NOROOT(0)
        DATA8
//   92 afAddrType_t ProjectApp_DstAddr;
ProjectApp_DstAddr:
        DS 12
        REQUIRE __INIT_XDATA_Z
//   93 
//   94 /*********************************************************************
//   95  * LOCAL FUNCTIONS
//   96  */
//   97 
//   98 static void ProjectApp_HandleKeys( byte shift, byte keys );
//   99 //static void ProjectApp_SendTheMessage( void );
//  100 static void ProjectApp_ProcessZDOMsgs( zdoIncomingMsg_t *inMsg );
//  101 static void ProjectApp_MessageMSGCB( afIncomingMSGPacket_t *pkt );
//  102 #if defined( IAR_ARMCM3_LM )
//  103 static void ProjectApp_ProcessRtosMessage( void );
//  104 #endif
//  105 static void ProjectApp_SendBindcast( void );
//  106 /*********************************************************************
//  107  * NETWORK LAYER CALLBACKS
//  108  */
//  109 
//  110 /*********************************************************************
//  111  * PUBLIC FUNCTIONS
//  112  */
//  113 
//  114 /*********************************************************************
//  115  * @fn      ProjectApp_Init
//  116  *
//  117  * @brief   Initialization function for the Project App Task.
//  118  *          This is called during initialization and should contain
//  119  *          any application specific initialization (ie. hardware
//  120  *          initialization/setup, table initialization, power up
//  121  *          notificaiton ... ).
//  122  *
//  123  * @param   task_id - the ID assigned by OSAL.  This ID should be
//  124  *                    used to send messages and set timers.
//  125  *
//  126  * @return  none
//  127  */

        RSEG BANKED_CODE:HUGECODE:NOROOT(0)
//  128 void ProjectApp_Init( uint8 task_id )
ProjectApp_Init:
          CFI Block cfiBlock0 Using cfiCommon0
          CFI Function ProjectApp_Init
        CODE
//  129 {
        FUNCALL ProjectApp_Init, afRegister
        LOCFRAME ISTACK, 0, STACK
        LOCFRAME PSTACK, 0, STACK
        LOCFRAME XSTACK, 9, STACK
        LOCFRAME IOVERLAY, 0, STATIC
        LOCFRAME DOVERLAY, 0, STATIC
        ARGFRAME ISTACK, 0, STACK
        ARGFRAME PSTACK, 0, STACK
        ARGFRAME XSTACK, 9, STACK
        ARGFRAME IOVERLAY, 0, STATIC
        ARGFRAME DOVERLAY, 0, STATIC
        FUNCALL ProjectApp_Init, RegisterForKeys
        LOCFRAME ISTACK, 0, STACK
        LOCFRAME PSTACK, 0, STACK
        LOCFRAME XSTACK, 9, STACK
        LOCFRAME IOVERLAY, 0, STATIC
        LOCFRAME DOVERLAY, 0, STATIC
        ARGFRAME ISTACK, 0, STACK
        ARGFRAME PSTACK, 0, STACK
        ARGFRAME XSTACK, 9, STACK
        ARGFRAME IOVERLAY, 0, STATIC
        ARGFRAME DOVERLAY, 0, STATIC
        FUNCALL ProjectApp_Init, ZDO_RegisterForZDOMsg
        LOCFRAME ISTACK, 0, STACK
        LOCFRAME PSTACK, 0, STACK
        LOCFRAME XSTACK, 9, STACK
        LOCFRAME IOVERLAY, 0, STATIC
        LOCFRAME DOVERLAY, 0, STATIC
        ARGFRAME ISTACK, 0, STACK
        ARGFRAME PSTACK, 0, STACK
        ARGFRAME XSTACK, 9, STACK
        ARGFRAME IOVERLAY, 0, STATIC
        ARGFRAME DOVERLAY, 0, STATIC
        FUNCALL ProjectApp_Init, ZDO_RegisterForZDOMsg
        LOCFRAME ISTACK, 0, STACK
        LOCFRAME PSTACK, 0, STACK
        LOCFRAME XSTACK, 9, STACK
        LOCFRAME IOVERLAY, 0, STATIC
        LOCFRAME DOVERLAY, 0, STATIC
        ARGFRAME ISTACK, 0, STACK
        ARGFRAME PSTACK, 0, STACK
        ARGFRAME XSTACK, 9, STACK
        ARGFRAME IOVERLAY, 0, STATIC
        ARGFRAME DOVERLAY, 0, STATIC
        FUNCALL ProjectApp_Init, USER_Uart0_Init
        LOCFRAME ISTACK, 0, STACK
        LOCFRAME PSTACK, 0, STACK
        LOCFRAME XSTACK, 9, STACK
        LOCFRAME IOVERLAY, 0, STATIC
        LOCFRAME DOVERLAY, 0, STATIC
        ARGFRAME ISTACK, 0, STACK
        ARGFRAME PSTACK, 0, STACK
        ARGFRAME XSTACK, 9, STACK
        ARGFRAME IOVERLAY, 0, STATIC
        ARGFRAME DOVERLAY, 0, STATIC
        FUNCALL ProjectApp_Init, ZDO_RegisterForZDOMsg
        LOCFRAME ISTACK, 0, STACK
        LOCFRAME PSTACK, 0, STACK
        LOCFRAME XSTACK, 9, STACK
        LOCFRAME IOVERLAY, 0, STATIC
        LOCFRAME DOVERLAY, 0, STATIC
        ARGFRAME ISTACK, 0, STACK
        ARGFRAME PSTACK, 0, STACK
        ARGFRAME XSTACK, 9, STACK
        ARGFRAME IOVERLAY, 0, STATIC
        ARGFRAME DOVERLAY, 0, STATIC
        FUNCALL ProjectApp_Init, SHT2x_Init
        LOCFRAME ISTACK, 0, STACK
        LOCFRAME PSTACK, 0, STACK
        LOCFRAME XSTACK, 9, STACK
        LOCFRAME IOVERLAY, 0, STATIC
        LOCFRAME DOVERLAY, 0, STATIC
        ARGFRAME ISTACK, 0, STACK
        ARGFRAME PSTACK, 0, STACK
        ARGFRAME XSTACK, 9, STACK
        ARGFRAME IOVERLAY, 0, STATIC
        ARGFRAME DOVERLAY, 0, STATIC
        MOV       A,#-0x9
        LCALL     ?BANKED_ENTER_XDATA
          CFI DPH0 load(1, XDATA, add(CFA_XSP16, literal(-1)))
          CFI DPL0 load(1, XDATA, add(CFA_XSP16, literal(-2)))
          CFI ?BRET_EXT load(1, XDATA, add(CFA_XSP16, literal(-3)))
          CFI ?RET_HIGH load(1, XDATA, add(CFA_XSP16, literal(-4)))
          CFI ?RET_LOW load(1, XDATA, add(CFA_XSP16, literal(-5)))
          CFI R7 load(1, XDATA, add(CFA_XSP16, literal(-6)))
          CFI V0 load(1, XDATA, add(CFA_XSP16, literal(-7)))
          CFI VB load(1, XDATA, add(CFA_XSP16, literal(-8)))
          CFI R6 load(1, XDATA, add(CFA_XSP16, literal(-9)))
          CFI CFA_SP SP+0
          CFI CFA_XSP16 add(XSP16, 9)
        ; Saved register size: 9
        ; Auto size: 0
        MOV       A,R1
//  130   ProjectApp_TaskID = task_id;
        MOV       DPTR,#ProjectApp_TaskID
        MOVX      @DPTR,A
//  131   ProjectApp_NwkState = DEV_INIT;
        MOV       DPTR,#ProjectApp_NwkState
        MOV       A,#0x1
        MOVX      @DPTR,A
//  132   ProjectApp_TransID = 0;
        MOV       DPTR,#ProjectApp_TransID
        CLR       A
        MOVX      @DPTR,A
//  133 
//  134   // Device hardware initialization can be added here or in main() (Zmain.c).
//  135   // If the hardware is application specific - add it here.
//  136   // If the hardware is other parts of the device add it in main().
//  137 
//  138   ProjectApp_DstAddr.addrMode = (afAddrMode_t)AddrNotPresent;
        MOV       DPTR,#ProjectApp_DstAddr + 8
        MOVX      @DPTR,A
//  139   ProjectApp_DstAddr.endPoint = 0;
        INC       DPTR
        MOVX      @DPTR,A
//  140   ProjectApp_DstAddr.addr.shortAddr = 0;
        MOV       DPTR,#ProjectApp_DstAddr
        MOVX      @DPTR,A
        INC       DPTR
        MOVX      @DPTR,A
//  141 
//  142   // Fill out the endpoint description.
//  143   ProjectApp_epDesc.endPoint = PROJECTAPP_ENDPOINT;
        MOV       DPTR,#ProjectApp_epDesc
        MOV       A,#0xa
        MOVX      @DPTR,A
//  144   ProjectApp_epDesc.task_id = &ProjectApp_TaskID;
        INC       DPTR
        MOV       A,#ProjectApp_TaskID & 0xff
        MOVX      @DPTR,A
        INC       DPTR
        MOV       A,#(ProjectApp_TaskID >> 8) & 0xff
        MOVX      @DPTR,A
//  145   ProjectApp_epDesc.simpleDesc
//  146             = (SimpleDescriptionFormat_t *)&ProjectApp_SimpleDesc;
        INC       DPTR
        MOV       A,#ProjectApp_SimpleDesc & 0xff
        MOVX      @DPTR,A
        INC       DPTR
        MOV       A,#(ProjectApp_SimpleDesc >> 8) & 0xff
        MOVX      @DPTR,A
//  147   ProjectApp_epDesc.latencyReq = noLatencyReqs;
        INC       DPTR
        CLR       A
        MOVX      @DPTR,A
//  148 
//  149   // Register the endpoint description with the AF
//  150   afRegister( &ProjectApp_epDesc );
        ; Setup parameters for call to function afRegister
        MOV       R2,#ProjectApp_epDesc & 0xff
        MOV       R3,#(ProjectApp_epDesc >> 8) & 0xff
        LCALL     `??afRegister::?relay`; Banked call to: afRegister
//  151 
//  152   // Register for all key events - This app will handle all key events
//  153   RegisterForKeys( ProjectApp_TaskID );
        ; Setup parameters for call to function RegisterForKeys
        MOV       DPTR,#ProjectApp_TaskID
        MOVX      A,@DPTR
        MOV       R1,A
        LCALL     `??RegisterForKeys::?relay`; Banked call to: RegisterForKeys
//  154 
//  155   // Update the display
//  156 #if defined ( LCD_SUPPORTED )
//  157   HalLcdWriteString( "ProjectApp", HAL_LCD_LINE_1 );
//  158 #endif
//  159 
//  160   ZDO_RegisterForZDOMsg( ProjectApp_TaskID, End_Device_Bind_rsp );
        ; Setup parameters for call to function ZDO_RegisterForZDOMsg
        LCALL     ?Subroutine0 & 0xFFFF
//  161   ZDO_RegisterForZDOMsg( ProjectApp_TaskID, Match_Desc_rsp );
??CrossCallReturnLabel_0:
        ; Setup parameters for call to function ZDO_RegisterForZDOMsg
        MOV       R2,#0x6
        LCALL     ??Subroutine1_0 & 0xFFFF
//  162 
//  163 #if defined( IAR_ARMCM3_LM )
//  164   // Register this task with RTOS task initiator
//  165   RTOS_RegisterApp( task_id, PROJECTAPP_RTOS_MSG_EVT );
//  166 #endif
//  167   
//  168   USER_Uart0_Init(HAL_UART_BR_115200);
??CrossCallReturnLabel_2:
        ; Setup parameters for call to function USER_Uart0_Init
        MOV       R1,#0x4
        LCALL     `??USER_Uart0_Init::?relay`; Banked call to: USER_Uart0_Init
//  169    
//  170   ZDO_RegisterForZDOMsg( ProjectApp_TaskID, End_Device_Bind_rsp );
        ; Setup parameters for call to function ZDO_RegisterForZDOMsg
        LCALL     ?Subroutine0 & 0xFFFF
//  171 
//  172   SHT2x_Init(); 
??CrossCallReturnLabel_1:
        ; Setup parameters for call to function SHT2x_Init
        LCALL     `??SHT2x_Init::?relay`; Banked call to: SHT2x_Init
//  173 
//  174 //  osal_start_timerEx( ProjectApp_TaskID,
//  175 //                      PROJECTAPP_SEND_MSG_EVT,
//  176 //                      PROJECTAPP_SEND_MSG_TIMEOUT );
//  177 }
        MOV       R7,#0x1
        LJMP      ?BANKED_LEAVE_XDATA
          CFI EndBlock cfiBlock0

        RSEG BANKED_CODE:HUGECODE:NOROOT(0)
?Subroutine0:
          CFI Block cfiCond1 Using cfiCommon0
          CFI Function ProjectApp_Init
          CFI Conditional ??CrossCallReturnLabel_0
          CFI R6 load(1, XDATA, add(CFA_XSP16, literal(-9)))
          CFI VB load(1, XDATA, add(CFA_XSP16, literal(-8)))
          CFI V0 load(1, XDATA, add(CFA_XSP16, literal(-7)))
          CFI R7 load(1, XDATA, add(CFA_XSP16, literal(-6)))
          CFI ?RET_LOW load(1, XDATA, add(CFA_XSP16, literal(-5)))
          CFI ?RET_HIGH load(1, XDATA, add(CFA_XSP16, literal(-4)))
          CFI ?BRET_EXT load(1, XDATA, add(CFA_XSP16, literal(-3)))
          CFI DPL0 load(1, XDATA, add(CFA_XSP16, literal(-2)))
          CFI DPH0 load(1, XDATA, add(CFA_XSP16, literal(-1)))
          CFI CFA_SP SP+-2
          CFI CFA_XSP16 add(XSP16, 9)
          CFI Block cfiCond2 Using cfiCommon0
          CFI (cfiCond2) Function ProjectApp_Init
          CFI (cfiCond2) Conditional ??CrossCallReturnLabel_1
          CFI (cfiCond2) R6 load(1, XDATA, add(CFA_XSP16, literal(-9)))
          CFI (cfiCond2) VB load(1, XDATA, add(CFA_XSP16, literal(-8)))
          CFI (cfiCond2) V0 load(1, XDATA, add(CFA_XSP16, literal(-7)))
          CFI (cfiCond2) R7 load(1, XDATA, add(CFA_XSP16, literal(-6)))
          CFI (cfiCond2) ?RET_LOW load(1, XDATA, add(CFA_XSP16, literal(-5)))
          CFI (cfiCond2) ?RET_HIGH load(1, XDATA, add(CFA_XSP16, literal(-4)))
          CFI (cfiCond2) ?BRET_EXT load(1, XDATA, add(CFA_XSP16, literal(-3)))
          CFI (cfiCond2) DPL0 load(1, XDATA, add(CFA_XSP16, literal(-2)))
          CFI (cfiCond2) DPH0 load(1, XDATA, add(CFA_XSP16, literal(-1)))
          CFI (cfiCond2) CFA_SP SP+-2
          CFI (cfiCond2) CFA_XSP16 add(XSP16, 9)
          CFI Block cfiPicker3 Using cfiCommon1
          CFI (cfiPicker3) NoFunction
          CFI (cfiPicker3) Picker
        MOV       R2,#0x20
          CFI EndBlock cfiCond1
          CFI EndBlock cfiCond2
          CFI EndBlock cfiPicker3
        REQUIRE ??Subroutine1_0
        ; // Fall through to label ??Subroutine1_0

        RSEG BANKED_CODE:HUGECODE:NOROOT(0)
??Subroutine1_0:
          CFI Block cfiCond4 Using cfiCommon0
          CFI Function ProjectApp_Init
          CFI Conditional ??CrossCallReturnLabel_2
          CFI R6 load(1, XDATA, add(CFA_XSP16, literal(-9)))
          CFI VB load(1, XDATA, add(CFA_XSP16, literal(-8)))
          CFI V0 load(1, XDATA, add(CFA_XSP16, literal(-7)))
          CFI R7 load(1, XDATA, add(CFA_XSP16, literal(-6)))
          CFI ?RET_LOW load(1, XDATA, add(CFA_XSP16, literal(-5)))
          CFI ?RET_HIGH load(1, XDATA, add(CFA_XSP16, literal(-4)))
          CFI ?BRET_EXT load(1, XDATA, add(CFA_XSP16, literal(-3)))
          CFI DPL0 load(1, XDATA, add(CFA_XSP16, literal(-2)))
          CFI DPH0 load(1, XDATA, add(CFA_XSP16, literal(-1)))
          CFI CFA_SP SP+-2
          CFI CFA_XSP16 add(XSP16, 9)
          CFI Block cfiCond5 Using cfiCommon0
          CFI (cfiCond5) Function ProjectApp_Init
          CFI (cfiCond5) Conditional ??CrossCallReturnLabel_0
          CFI (cfiCond5) R6 load(1, XDATA, add(CFA_XSP16, literal(-9)))
          CFI (cfiCond5) VB load(1, XDATA, add(CFA_XSP16, literal(-8)))
          CFI (cfiCond5) V0 load(1, XDATA, add(CFA_XSP16, literal(-7)))
          CFI (cfiCond5) R7 load(1, XDATA, add(CFA_XSP16, literal(-6)))
          CFI (cfiCond5) ?RET_LOW load(1, XDATA, add(CFA_XSP16, literal(-5)))
          CFI (cfiCond5) ?RET_HIGH load(1, XDATA, add(CFA_XSP16, literal(-4)))
          CFI (cfiCond5) ?BRET_EXT load(1, XDATA, add(CFA_XSP16, literal(-3)))
          CFI (cfiCond5) DPL0 load(1, XDATA, add(CFA_XSP16, literal(-2)))
          CFI (cfiCond5) DPH0 load(1, XDATA, add(CFA_XSP16, literal(-1)))
          CFI (cfiCond5) CFA_SP SP+-2
          CFI (cfiCond5) CFA_XSP16 add(XSP16, 9)
          CFI Block cfiCond6 Using cfiCommon0
          CFI (cfiCond6) Function ProjectApp_Init
          CFI (cfiCond6) Conditional ??CrossCallReturnLabel_1
          CFI (cfiCond6) R6 load(1, XDATA, add(CFA_XSP16, literal(-9)))
          CFI (cfiCond6) VB load(1, XDATA, add(CFA_XSP16, literal(-8)))
          CFI (cfiCond6) V0 load(1, XDATA, add(CFA_XSP16, literal(-7)))
          CFI (cfiCond6) R7 load(1, XDATA, add(CFA_XSP16, literal(-6)))
          CFI (cfiCond6) ?RET_LOW load(1, XDATA, add(CFA_XSP16, literal(-5)))
          CFI (cfiCond6) ?RET_HIGH load(1, XDATA, add(CFA_XSP16, literal(-4)))
          CFI (cfiCond6) ?BRET_EXT load(1, XDATA, add(CFA_XSP16, literal(-3)))
          CFI (cfiCond6) DPL0 load(1, XDATA, add(CFA_XSP16, literal(-2)))
          CFI (cfiCond6) DPH0 load(1, XDATA, add(CFA_XSP16, literal(-1)))
          CFI (cfiCond6) CFA_SP SP+-2
          CFI (cfiCond6) CFA_XSP16 add(XSP16, 9)
          CFI Block cfiPicker7 Using cfiCommon1
          CFI (cfiPicker7) NoFunction
          CFI (cfiPicker7) Picker
        MOV       R3,#-0x80
        MOV       DPTR,#ProjectApp_TaskID
        MOVX      A,@DPTR
        MOV       R1,A
        LCALL     `??ZDO_RegisterForZDOMsg::?relay`; Banked call to: ZDO_RegisterForZDOMsg
        RET
          CFI EndBlock cfiCond4
          CFI EndBlock cfiCond5
          CFI EndBlock cfiCond6
          CFI EndBlock cfiPicker7
//  178 
//  179 /*********************************************************************
//  180  * @fn      ProjectApp_ProcessEvent
//  181  *
//  182  * @brief   Project Application Task event processor.  This function
//  183  *          is called to process all events for the task.  Events
//  184  *          include timers, messages and any other user defined events.
//  185  *
//  186  * @param   task_id  - The OSAL assigned task ID.
//  187  * @param   events - events to process.  This is a bit map and can
//  188  *                   contain more than one event.
//  189  *
//  190  * @return  none
//  191  */

        RSEG BANKED_CODE:HUGECODE:NOROOT(0)
//  192 uint16 ProjectApp_ProcessEvent( uint8 task_id, uint16 events )
ProjectApp_ProcessEvent:
          CFI Block cfiBlock8 Using cfiCommon0
          CFI Function ProjectApp_ProcessEvent
        CODE
//  193 {
        FUNCALL ProjectApp_ProcessEvent, osal_msg_receive
        LOCFRAME ISTACK, 0, STACK
        LOCFRAME PSTACK, 0, STACK
        LOCFRAME XSTACK, 69, STACK
        LOCFRAME IOVERLAY, 0, STATIC
        LOCFRAME DOVERLAY, 0, STATIC
        ARGFRAME ISTACK, 0, STACK
        ARGFRAME PSTACK, 0, STACK
        ARGFRAME XSTACK, 69, STACK
        ARGFRAME IOVERLAY, 0, STATIC
        ARGFRAME DOVERLAY, 0, STATIC
        FUNCALL ProjectApp_ProcessEvent, user_state_change
        LOCFRAME ISTACK, 0, STACK
        LOCFRAME PSTACK, 0, STACK
        LOCFRAME XSTACK, 69, STACK
        LOCFRAME IOVERLAY, 0, STATIC
        LOCFRAME DOVERLAY, 0, STATIC
        ARGFRAME ISTACK, 0, STACK
        ARGFRAME PSTACK, 0, STACK
        ARGFRAME XSTACK, 69, STACK
        ARGFRAME IOVERLAY, 0, STATIC
        ARGFRAME DOVERLAY, 0, STATIC
        FUNCALL ProjectApp_ProcessEvent, osal_msg_deallocate
        LOCFRAME ISTACK, 0, STACK
        LOCFRAME PSTACK, 0, STACK
        LOCFRAME XSTACK, 69, STACK
        LOCFRAME IOVERLAY, 0, STATIC
        LOCFRAME DOVERLAY, 0, STATIC
        ARGFRAME ISTACK, 0, STACK
        ARGFRAME PSTACK, 0, STACK
        ARGFRAME XSTACK, 69, STACK
        ARGFRAME IOVERLAY, 0, STATIC
        ARGFRAME DOVERLAY, 0, STATIC
        FUNCALL ProjectApp_ProcessEvent, osal_msg_receive
        LOCFRAME ISTACK, 0, STACK
        LOCFRAME PSTACK, 0, STACK
        LOCFRAME XSTACK, 69, STACK
        LOCFRAME IOVERLAY, 0, STATIC
        LOCFRAME DOVERLAY, 0, STATIC
        ARGFRAME ISTACK, 0, STACK
        ARGFRAME PSTACK, 0, STACK
        ARGFRAME XSTACK, 69, STACK
        ARGFRAME IOVERLAY, 0, STATIC
        ARGFRAME DOVERLAY, 0, STATIC
        FUNCALL ProjectApp_ProcessEvent, printf
        LOCFRAME ISTACK, 0, STACK
        LOCFRAME PSTACK, 0, STACK
        LOCFRAME XSTACK, 69, STACK
        LOCFRAME IOVERLAY, 0, STATIC
        LOCFRAME DOVERLAY, 0, STATIC
        ARGFRAME ISTACK, 0, STACK
        ARGFRAME PSTACK, 0, STACK
        ARGFRAME XSTACK, 69, STACK
        ARGFRAME IOVERLAY, 0, STATIC
        ARGFRAME DOVERLAY, 0, STATIC
        FUNCALL ProjectApp_ProcessEvent, osal_start_timerEx
        LOCFRAME ISTACK, 0, STACK
        LOCFRAME PSTACK, 0, STACK
        LOCFRAME XSTACK, 69, STACK
        LOCFRAME IOVERLAY, 0, STATIC
        LOCFRAME DOVERLAY, 0, STATIC
        ARGFRAME ISTACK, 0, STACK
        ARGFRAME PSTACK, 0, STACK
        ARGFRAME XSTACK, 69, STACK
        ARGFRAME IOVERLAY, 0, STATIC
        ARGFRAME DOVERLAY, 0, STATIC
        FUNCALL ProjectApp_ProcessEvent, printf
        LOCFRAME ISTACK, 0, STACK
        LOCFRAME PSTACK, 0, STACK
        LOCFRAME XSTACK, 69, STACK
        LOCFRAME IOVERLAY, 0, STATIC
        LOCFRAME DOVERLAY, 0, STATIC
        ARGFRAME ISTACK, 0, STACK
        ARGFRAME PSTACK, 0, STACK
        ARGFRAME XSTACK, 69, STACK
        ARGFRAME IOVERLAY, 0, STATIC
        ARGFRAME DOVERLAY, 0, STATIC
        FUNCALL ProjectApp_ProcessEvent, HalLedSet
        LOCFRAME ISTACK, 0, STACK
        LOCFRAME PSTACK, 0, STACK
        LOCFRAME XSTACK, 69, STACK
        LOCFRAME IOVERLAY, 0, STATIC
        LOCFRAME DOVERLAY, 0, STATIC
        ARGFRAME ISTACK, 0, STACK
        ARGFRAME PSTACK, 0, STACK
        ARGFRAME XSTACK, 69, STACK
        ARGFRAME IOVERLAY, 0, STATIC
        ARGFRAME DOVERLAY, 0, STATIC
        FUNCALL ProjectApp_ProcessEvent, NLME_GetShortAddr
        LOCFRAME ISTACK, 0, STACK
        LOCFRAME PSTACK, 0, STACK
        LOCFRAME XSTACK, 69, STACK
        LOCFRAME IOVERLAY, 0, STATIC
        LOCFRAME DOVERLAY, 0, STATIC
        ARGFRAME ISTACK, 0, STACK
        ARGFRAME PSTACK, 0, STACK
        ARGFRAME XSTACK, 69, STACK
        ARGFRAME IOVERLAY, 0, STATIC
        ARGFRAME DOVERLAY, 0, STATIC
        FUNCALL ProjectApp_ProcessEvent, ZDP_EndDeviceBindReq
        LOCFRAME ISTACK, 0, STACK
        LOCFRAME PSTACK, 0, STACK
        LOCFRAME XSTACK, 78, STACK
        LOCFRAME IOVERLAY, 0, STATIC
        LOCFRAME DOVERLAY, 0, STATIC
        ARGFRAME ISTACK, 0, STACK
        ARGFRAME PSTACK, 0, STACK
        ARGFRAME XSTACK, 78, STACK
        ARGFRAME IOVERLAY, 0, STATIC
        ARGFRAME DOVERLAY, 0, STATIC
        FUNCALL ProjectApp_ProcessEvent, HalLedSet
        LOCFRAME ISTACK, 0, STACK
        LOCFRAME PSTACK, 0, STACK
        LOCFRAME XSTACK, 69, STACK
        LOCFRAME IOVERLAY, 0, STATIC
        LOCFRAME DOVERLAY, 0, STATIC
        ARGFRAME ISTACK, 0, STACK
        ARGFRAME PSTACK, 0, STACK
        ARGFRAME XSTACK, 69, STACK
        ARGFRAME IOVERLAY, 0, STATIC
        ARGFRAME DOVERLAY, 0, STATIC
        FUNCALL ProjectApp_ProcessEvent, ZDP_MatchDescReq
        LOCFRAME ISTACK, 0, STACK
        LOCFRAME PSTACK, 0, STACK
        LOCFRAME XSTACK, 77, STACK
        LOCFRAME IOVERLAY, 0, STATIC
        LOCFRAME DOVERLAY, 0, STATIC
        ARGFRAME ISTACK, 0, STACK
        ARGFRAME PSTACK, 0, STACK
        ARGFRAME XSTACK, 77, STACK
        ARGFRAME IOVERLAY, 0, STATIC
        ARGFRAME DOVERLAY, 0, STATIC
        FUNCALL ProjectApp_ProcessEvent, printf
        LOCFRAME ISTACK, 0, STACK
        LOCFRAME PSTACK, 0, STACK
        LOCFRAME XSTACK, 71, STACK
        LOCFRAME IOVERLAY, 0, STATIC
        LOCFRAME DOVERLAY, 0, STATIC
        ARGFRAME ISTACK, 0, STACK
        ARGFRAME PSTACK, 0, STACK
        ARGFRAME XSTACK, 71, STACK
        ARGFRAME IOVERLAY, 0, STATIC
        ARGFRAME DOVERLAY, 0, STATIC
        FUNCALL ProjectApp_ProcessEvent, SHT2x_GetTempPoll
        LOCFRAME ISTACK, 0, STACK
        LOCFRAME PSTACK, 0, STACK
        LOCFRAME XSTACK, 69, STACK
        LOCFRAME IOVERLAY, 0, STATIC
        LOCFRAME DOVERLAY, 0, STATIC
        ARGFRAME ISTACK, 0, STACK
        ARGFRAME PSTACK, 0, STACK
        ARGFRAME XSTACK, 69, STACK
        ARGFRAME IOVERLAY, 0, STATIC
        ARGFRAME DOVERLAY, 0, STATIC
        FUNCALL ProjectApp_ProcessEvent, sprintf
        LOCFRAME ISTACK, 0, STACK
        LOCFRAME PSTACK, 0, STACK
        LOCFRAME XSTACK, 73, STACK
        LOCFRAME IOVERLAY, 0, STATIC
        LOCFRAME DOVERLAY, 0, STATIC
        ARGFRAME ISTACK, 0, STACK
        ARGFRAME PSTACK, 0, STACK
        ARGFRAME XSTACK, 73, STACK
        ARGFRAME IOVERLAY, 0, STATIC
        ARGFRAME DOVERLAY, 0, STATIC
        FUNCALL ProjectApp_ProcessEvent, printf
        LOCFRAME ISTACK, 0, STACK
        LOCFRAME PSTACK, 0, STACK
        LOCFRAME XSTACK, 71, STACK
        LOCFRAME IOVERLAY, 0, STATIC
        LOCFRAME DOVERLAY, 0, STATIC
        ARGFRAME ISTACK, 0, STACK
        ARGFRAME PSTACK, 0, STACK
        ARGFRAME XSTACK, 71, STACK
        ARGFRAME IOVERLAY, 0, STATIC
        ARGFRAME DOVERLAY, 0, STATIC
        FUNCALL ProjectApp_ProcessEvent, strlen
        LOCFRAME ISTACK, 0, STACK
        LOCFRAME PSTACK, 0, STACK
        LOCFRAME XSTACK, 69, STACK
        LOCFRAME IOVERLAY, 0, STATIC
        LOCFRAME DOVERLAY, 0, STATIC
        ARGFRAME ISTACK, 0, STACK
        ARGFRAME PSTACK, 0, STACK
        ARGFRAME XSTACK, 69, STACK
        ARGFRAME IOVERLAY, 0, STATIC
        ARGFRAME DOVERLAY, 0, STATIC
        FUNCALL ProjectApp_ProcessEvent, AF_DataRequest
        LOCFRAME ISTACK, 0, STACK
        LOCFRAME PSTACK, 0, STACK
        LOCFRAME XSTACK, 78, STACK
        LOCFRAME IOVERLAY, 0, STATIC
        LOCFRAME DOVERLAY, 0, STATIC
        ARGFRAME ISTACK, 0, STACK
        ARGFRAME PSTACK, 0, STACK
        ARGFRAME XSTACK, 78, STACK
        ARGFRAME IOVERLAY, 0, STATIC
        ARGFRAME DOVERLAY, 0, STATIC
        FUNCALL ProjectApp_ProcessEvent, osal_rand
        LOCFRAME ISTACK, 0, STACK
        LOCFRAME PSTACK, 0, STACK
        LOCFRAME XSTACK, 69, STACK
        LOCFRAME IOVERLAY, 0, STATIC
        LOCFRAME DOVERLAY, 0, STATIC
        ARGFRAME ISTACK, 0, STACK
        ARGFRAME PSTACK, 0, STACK
        ARGFRAME XSTACK, 69, STACK
        ARGFRAME IOVERLAY, 0, STATIC
        ARGFRAME DOVERLAY, 0, STATIC
        FUNCALL ProjectApp_ProcessEvent, osal_start_timerEx
        LOCFRAME ISTACK, 0, STACK
        LOCFRAME PSTACK, 0, STACK
        LOCFRAME XSTACK, 69, STACK
        LOCFRAME IOVERLAY, 0, STATIC
        LOCFRAME DOVERLAY, 0, STATIC
        ARGFRAME ISTACK, 0, STACK
        ARGFRAME PSTACK, 0, STACK
        ARGFRAME XSTACK, 69, STACK
        ARGFRAME IOVERLAY, 0, STATIC
        ARGFRAME DOVERLAY, 0, STATIC
        REQUIRE ?V0
        REQUIRE ?V1
        REQUIRE ?V2
        REQUIRE ?V3
        REQUIRE ?V4
        REQUIRE ?V6
        REQUIRE ?V7
        MOV       A,#-0x10
        LCALL     ?BANKED_ENTER_XDATA
          CFI DPH0 load(1, XDATA, add(CFA_XSP16, literal(-1)))
          CFI DPL0 load(1, XDATA, add(CFA_XSP16, literal(-2)))
          CFI ?BRET_EXT load(1, XDATA, add(CFA_XSP16, literal(-3)))
          CFI ?RET_HIGH load(1, XDATA, add(CFA_XSP16, literal(-4)))
          CFI ?RET_LOW load(1, XDATA, add(CFA_XSP16, literal(-5)))
          CFI R7 load(1, XDATA, add(CFA_XSP16, literal(-6)))
          CFI V7 load(1, XDATA, add(CFA_XSP16, literal(-7)))
          CFI V6 load(1, XDATA, add(CFA_XSP16, literal(-8)))
          CFI V5 load(1, XDATA, add(CFA_XSP16, literal(-9)))
          CFI V4 load(1, XDATA, add(CFA_XSP16, literal(-10)))
          CFI V3 load(1, XDATA, add(CFA_XSP16, literal(-11)))
          CFI V2 load(1, XDATA, add(CFA_XSP16, literal(-12)))
          CFI V1 load(1, XDATA, add(CFA_XSP16, literal(-13)))
          CFI V0 load(1, XDATA, add(CFA_XSP16, literal(-14)))
          CFI VB load(1, XDATA, add(CFA_XSP16, literal(-15)))
          CFI R6 load(1, XDATA, add(CFA_XSP16, literal(-16)))
          CFI CFA_SP SP+0
          CFI CFA_XSP16 add(XSP16, 16)
        ; Saved register size: 16
        ; Auto size: 53
        MOV       A,#-0x35
        LCALL     ?ALLOC_XSTACK8
          CFI CFA_XSP16 add(XSP16, 69)
        MOV       A,R2
        MOV       R6,A
        MOV       A,R3
        MOV       R7,A
//  194   afIncomingMSGPacket_t *MSGpkt;
//  195   afDataConfirm_t *afDataConfirm;
//  196 
//  197   // Data Confirmation message fields
//  198   byte sentEP;
//  199   ZStatus_t sentStatus;
//  200   byte sentTransID;       // This should match the value sent
//  201   (void)task_id;  // Intentionally unreferenced parameter
//  202 
//  203   if ( events & SYS_EVENT_MSG )
        ANL       A,#0x80
        JNZ       $+5
        LJMP      ??ProjectApp_ProcessEvent_0 & 0xFFFF
//  204   {
//  205     MSGpkt = (afIncomingMSGPacket_t *)osal_msg_receive( ProjectApp_TaskID );
        ; Setup parameters for call to function osal_msg_receive
        SJMP      ??ProjectApp_ProcessEvent_1
//  206     while ( MSGpkt )
//  207     {
//  208       switch ( MSGpkt->hdr.event )
//  209       {
//  210         case ZDO_CB_MSG:
//  211           ProjectApp_ProcessZDOMsgs( (zdoIncomingMsg_t *)MSGpkt );
//  212           break;
//  213 
//  214         case KEY_CHANGE:
//  215           ProjectApp_HandleKeys( ((keyChange_t *)MSGpkt)->state, ((keyChange_t *)MSGpkt)->keys );
//  216           break;
//  217 
//  218         case AF_DATA_CONFIRM_CMD:
//  219           // This message is received as a confirmation of a data packet sent.
//  220           // The status is of ZStatus_t type [defined in ZComDef.h]
//  221           // The message fields are defined in AF.h
//  222           afDataConfirm = (afDataConfirm_t *)MSGpkt;
//  223           sentEP = afDataConfirm->endpoint;
//  224           sentStatus = afDataConfirm->hdr.status;
//  225           sentTransID = afDataConfirm->transID;
//  226           (void)sentEP;
//  227           (void)sentTransID;
//  228 
//  229           // Action taken when confirmation is received.
//  230           if ( sentStatus != ZSuccess )
//  231           {
//  232             // The data wasn't delivered -- Do something
//  233           }
//  234           break;
//  235 
//  236         case AF_INCOMING_MSG_CMD:
//  237            ProjectApp_MessageMSGCB( MSGpkt );
//  238           break;
//  239           
//  240         case ZDO_STATE_CHANGE:
//  241            user_state_change((devStates_t)(MSGpkt->hdr.status));
??ProjectApp_ProcessEvent_2:
        ; Setup parameters for call to function user_state_change
        INC       DPTR
        MOVX      A,@DPTR
        MOV       R1,A
        LCALL     `??user_state_change::?relay`; Banked call to: user_state_change
//  242           break;
//  243 
//  244         default:
//  245           break;
//  246       }
//  247 
//  248       // Release the memory
//  249       osal_msg_deallocate( (uint8 *)MSGpkt );
??ProjectApp_ProcessEvent_3:
        ; Setup parameters for call to function osal_msg_deallocate
        MOV       R2,?V0
        MOV       R3,?V1
        LCALL     `??osal_msg_deallocate::?relay`; Banked call to: osal_msg_deallocate
//  250 
//  251       // Next
//  252       MSGpkt = (afIncomingMSGPacket_t *)osal_msg_receive( ProjectApp_TaskID );
        ; Setup parameters for call to function osal_msg_receive
??ProjectApp_ProcessEvent_1:
        MOV       DPTR,#ProjectApp_TaskID
        MOVX      A,@DPTR
        MOV       R1,A
        LCALL     `??osal_msg_receive::?relay`; Banked call to: osal_msg_receive
        MOV       ?V0,R2
        MOV       ?V1,R3
        MOV       A,?V0
        ORL       A,?V1
        JNZ       $+5
        LJMP      ??ProjectApp_ProcessEvent_4 & 0xFFFF
        MOV       DPL,?V0
        MOV       DPH,?V1
        MOVX      A,@DPTR
        ADD       A,#-0x1a
        JNZ       $+5
        LJMP      ??ProjectApp_ProcessEvent_5 & 0xFFFF
        ADD       A,#0x5a
        JZ        ??ProjectApp_ProcessEvent_6
        ADD       A,#-0x11
        JZ        ??ProjectApp_ProcessEvent_2
        ADD       A,#-0x2
        JNZ       ??ProjectApp_ProcessEvent_3
        MOV       A,?V0
        ADD       A,#0xc
        MOV       DPL,A
        CLR       A
        ADDC      A,?V1
        MOV       DPH,A
        MOVX      A,@DPTR
        XRL       A,#0x20
        JNZ       ??ProjectApp_ProcessEvent_7
        INC       DPTR
        MOVX      A,@DPTR
        XRL       A,#0x80
??ProjectApp_ProcessEvent_7:
        JNZ       ??ProjectApp_ProcessEvent_3
        MOV       A,?V0
        ADD       A,#0x13
        MOV       DPL,A
        CLR       A
        ADDC      A,?V1
        MOV       DPH,A
        MOVX      A,@DPTR
        MOV       R0,A
        INC       DPTR
        MOVX      A,@DPTR
        MOV       DPH,A
        MOV       DPL,R0
        MOVX      A,@DPTR
        JNZ       ??ProjectApp_ProcessEvent_8
        ; Setup parameters for call to function printf
        MOV       R2,#`?<Constant "Bind success!\\r\\n">` & 0xff
        MOV       R3,#(`?<Constant "Bind success!\\r\\n">` >> 8) & 0xff
        LCALL     `??printf::?relay`; Banked call to: printf
        ; Setup parameters for call to function osal_start_timerEx
        MOV       R4,#-0x18
        MOV       R5,#0x3
        MOV       R2,#0x1
        MOV       R3,#0x0
        MOV       DPTR,#ProjectApp_TaskID
        MOVX      A,@DPTR
        MOV       R1,A
        LCALL     `??osal_start_timerEx::?relay`; Banked call to: osal_start_timerEx
        SJMP      ??ProjectApp_ProcessEvent_3
??ProjectApp_ProcessEvent_8:
        ; Setup parameters for call to function printf
        MOV       R2,#`?<Constant "Bind failure!\\r\\n">` & 0xff
        MOV       R3,#(`?<Constant "Bind failure!\\r\\n">` >> 8) & 0xff
        LCALL     `??printf::?relay`; Banked call to: printf
        LJMP      ??ProjectApp_ProcessEvent_3 & 0xFFFF
??ProjectApp_ProcessEvent_6:
        INC       DPTR
        INC       DPTR
        INC       DPTR
        MOVX      A,@DPTR
        MOV       ?V4,A
        MOV       C,0xE0 /* A   */.1
        JNC       ??ProjectApp_ProcessEvent_9
        ; Setup parameters for call to function HalLedSet
        MOV       R2,#0x0
        MOV       R1,#0x8
        LCALL     `??HalLedSet::?relay`; Banked call to: HalLedSet
        MOV       A,#0x8
        LCALL     ?XSTACK_DISP0_8
        MOV       A,#0x2
        MOVX      @DPTR,A
        MOV       DPL,?XSP + 0
        MOV       DPH,?XSP + 1
        CLR       A
        MOVX      @DPTR,A
        INC       DPTR
        MOVX      @DPTR,A
        ; Setup parameters for call to function NLME_GetShortAddr
        LCALL     `??NLME_GetShortAddr::?relay`; Banked call to: NLME_GetShortAddr
        MOV       ?V2,R2
        MOV       ?V3,R3
        MOV       R4,?V2
        MOV       R5,?V3
        MOV       ?V6,#ProjectApp_ClusterList & 0xff
        MOV       ?V7,#(ProjectApp_ClusterList >> 8) & 0xff
        ; Setup parameters for call to function ZDP_EndDeviceBindReq
        MOV       ?V2,#0x0
        MOV       R0,#?V2
        LCALL     ?PUSH_XSTACK_I_ONE
          CFI CFA_XSP16 add(XSP16, 70)
        MOV       ?V2,?V6
        MOV       ?V3,?V7
        MOV       R0,#?V2
        LCALL     ?PUSH_XSTACK_I_TWO
          CFI CFA_XSP16 add(XSP16, 72)
        MOV       ?V2,#0x1
        MOV       R0,#?V2
        LCALL     ?PUSH_XSTACK_I_ONE
          CFI CFA_XSP16 add(XSP16, 73)
        MOV       ?V2,?V6
        MOV       R0,#?V2
        LCALL     ?PUSH_XSTACK_I_TWO
          CFI CFA_XSP16 add(XSP16, 75)
        MOV       ?V2,#0x1
        MOV       R0,#?V2
        LCALL     ?PUSH_XSTACK_I_ONE
          CFI CFA_XSP16 add(XSP16, 76)
        MOV       ?V2,#0x4
        MOV       ?V3,#0xf
        MOV       R0,#?V2
        LCALL     ?PUSH_XSTACK_I_TWO
          CFI CFA_XSP16 add(XSP16, 78)
        MOV       DPTR,#ProjectApp_epDesc
        MOVX      A,@DPTR
        MOV       R1,A
        MOV       A,#0x9
        LCALL     ?XSTACK_DISP101_8
        LCALL     `??ZDP_EndDeviceBindReq::?relay`; Banked call to: ZDP_EndDeviceBindReq
        MOV       A,#0x9
        LCALL     ?DEALLOC_XSTACK8
          CFI CFA_XSP16 add(XSP16, 69)
??ProjectApp_ProcessEvent_9:
        MOV       A,?V4
        MOV       C,0xE0 /* A   */.3
        JC        $+5
        LJMP      ??ProjectApp_ProcessEvent_3 & 0xFFFF
        ; Setup parameters for call to function HalLedSet
        MOV       R2,#0x0
        MOV       R1,#0x8
        LCALL     `??HalLedSet::?relay`; Banked call to: HalLedSet
        MOV       A,#0x8
        LCALL     ?XSTACK_DISP0_8
        MOV       A,#0xf
        MOVX      @DPTR,A
        MOV       DPL,?XSP + 0
        MOV       DPH,?XSP + 1
        MOV       A,#-0x1
        MOVX      @DPTR,A
        INC       DPTR
        MOVX      @DPTR,A
        MOV       ?V6,#ProjectApp_ClusterList & 0xff
        MOV       ?V7,#(ProjectApp_ClusterList >> 8) & 0xff
        ; Setup parameters for call to function ZDP_MatchDescReq
        MOV       ?V2,#0x0
        MOV       R0,#?V2
        LCALL     ?PUSH_XSTACK_I_ONE
          CFI CFA_XSP16 add(XSP16, 70)
        MOV       R0,#?V6
        LCALL     ?PUSH_XSTACK_I_TWO
          CFI CFA_XSP16 add(XSP16, 72)
        MOV       ?V2,#0x1
        MOV       R0,#?V2
        LCALL     ?PUSH_XSTACK_I_ONE
          CFI CFA_XSP16 add(XSP16, 73)
        MOV       R0,#?V6
        LCALL     ?PUSH_XSTACK_I_TWO
          CFI CFA_XSP16 add(XSP16, 75)
        MOV       ?V2,#0x4
        MOV       ?V3,#0xf
        MOV       R0,#?V2
        LCALL     ?PUSH_XSTACK_I_TWO
          CFI CFA_XSP16 add(XSP16, 77)
        MOV       R1,#0x1
        MOV       R4,#-0x1
        MOV       R5,#-0x1
        MOV       A,#0x8
        LCALL     ?XSTACK_DISP101_8
        LCALL     `??ZDP_MatchDescReq::?relay`; Banked call to: ZDP_MatchDescReq
        MOV       A,#0x8
        LCALL     ?DEALLOC_XSTACK8
          CFI CFA_XSP16 add(XSP16, 69)
        LJMP      ??ProjectApp_ProcessEvent_3 & 0xFFFF
??ProjectApp_ProcessEvent_5:
        INC       DPTR
        INC       DPTR
        INC       DPTR
        INC       DPTR
        MOVX      A,@DPTR
        XRL       A,#0x1
        JNZ       ??ProjectApp_ProcessEvent_10
        INC       DPTR
        MOVX      A,@DPTR
??ProjectApp_ProcessEvent_10:
        JZ        $+5
        LJMP      ??ProjectApp_ProcessEvent_3 & 0xFFFF
        ; Setup parameters for call to function printf
        MOV       A,?V0
        ADD       A,#0x22
        MOV       DPL,A
        CLR       A
        ADDC      A,?V1
        MOV       DPH,A
        LCALL     ?PUSH_XSTACK8_X_TWO
          CFI CFA_XSP16 add(XSP16, 71)
        MOV       R2,#`?<Constant "%s\\r\\n">` & 0xff
        MOV       R3,#(`?<Constant "%s\\r\\n">` >> 8) & 0xff
        LCALL     `??printf::?relay`; Banked call to: printf
        MOV       A,#0x2
        LCALL     ?DEALLOC_XSTACK8
          CFI CFA_XSP16 add(XSP16, 69)
        LJMP      ??ProjectApp_ProcessEvent_3 & 0xFFFF
//  253     }
//  254 
//  255     // return unprocessed events
//  256     return (events ^ SYS_EVENT_MSG);
??ProjectApp_ProcessEvent_4:
        MOV       A,R6
        MOV       R2,A
        MOV       A,R7
        XRL       A,#0x80
        LJMP      ??ProjectApp_ProcessEvent_11 & 0xFFFF
//  257   }
//  258 
//  259   // Send a message out - This event is generated by a timer
//  260   //  (setup in ProjectApp_Init()).
//  261   if ( events & PROJECTAPP_SEND_MSG_EVT )
??ProjectApp_ProcessEvent_0:
        MOV       A,R2
        MOV       C,0xE0 /* A   */.0
        JC        $+5
        LJMP      ??ProjectApp_ProcessEvent_12 & 0xFFFF
//  262   {
//  263     // Send "the" message
//  264     ProjectApp_SendBindcast();
        ; Setup parameters for call to function SHT2x_GetTempPoll
        LCALL     `??SHT2x_GetTempPoll::?relay`; Banked call to: SHT2x_GetTempPoll
        MOV       ?V0,R2
        MOV       ?V1,R3
        MOV       ?V2,R4
        MOV       ?V3,R5
        ; Setup parameters for call to function sprintf
        MOV       R0,#?V0
        LCALL     ?PUSH_XSTACK_I_FOUR
          CFI CFA_XSP16 add(XSP16, 73)
        MOV       R4,#`?<Constant "%5.2f C\\r\\n">` & 0xff
        MOV       R5,#(`?<Constant "%5.2f C\\r\\n">` >> 8) & 0xff
        MOV       A,#0x19
        LCALL     ?XSTACK_DISP101_8
        LCALL     `??sprintf::?relay`; Banked call to: sprintf
        MOV       A,#0x4
        LCALL     ?DEALLOC_XSTACK8
          CFI CFA_XSP16 add(XSP16, 69)
        ; Setup parameters for call to function printf
        MOV       A,#0x15
        LCALL     ?XSTACK_DISP100_8
        MOV       ?V0,R0
        MOV       ?V1,R1
        MOV       R0,#?V0
        LCALL     ?PUSH_XSTACK_I_TWO
          CFI CFA_XSP16 add(XSP16, 71)
        MOV       R2,#`?<Constant "%s\\r\\n">` & 0xff
        MOV       R3,#(`?<Constant "%s\\r\\n">` >> 8) & 0xff
        LCALL     `??printf::?relay`; Banked call to: printf
        MOV       A,#0x2
        LCALL     ?DEALLOC_XSTACK8
          CFI CFA_XSP16 add(XSP16, 69)
        MOV       A,#0x11
        LCALL     ?XSTACK_DISP0_8
        CLR       A
        MOVX      @DPTR,A
        MOV       A,#0x12
        LCALL     ?XSTACK_DISP0_8
        CLR       A
        MOVX      @DPTR,A
        MOV       A,#0x9
        LCALL     ?XSTACK_DISP0_8
        CLR       A
        MOVX      @DPTR,A
        INC       DPTR
        MOVX      @DPTR,A
        ; Setup parameters for call to function strlen
        MOV       A,#0x15
        LCALL     ?XSTACK_DISP101_8
        LCALL     `??strlen::?relay`; Banked call to: strlen
        ; Setup parameters for call to function AF_DataRequest
        MOV       ?V0,#0x1e
        MOV       R0,#?V0
        LCALL     ?PUSH_XSTACK_I_ONE
          CFI CFA_XSP16 add(XSP16, 70)
        MOV       ?V0,#ProjectApp_TransID & 0xff
        MOV       ?V1,#(ProjectApp_TransID >> 8) & 0xff
        MOV       R0,#?V0
        LCALL     ?PUSH_XSTACK_I_TWO
          CFI CFA_XSP16 add(XSP16, 72)
        MOV       A,#0x18
        LCALL     ?XSTACK_DISP100_8
        MOV       ?V0,R0
        MOV       ?V1,R1
        MOV       R0,#?V0
        LCALL     ?PUSH_XSTACK_I_TWO
          CFI CFA_XSP16 add(XSP16, 74)
        MOV       A,R2
        ADD       A,#0x1
        MOV       ?V0,A
        CLR       A
        ADDC      A,R3
        MOV       ?V1,A
        MOV       R0,#?V0
        LCALL     ?PUSH_XSTACK_I_TWO
          CFI CFA_XSP16 add(XSP16, 76)
        MOV       ?V0,#0x1
        MOV       ?V1,#0x0
        MOV       R0,#?V0
        LCALL     ?PUSH_XSTACK_I_TWO
          CFI CFA_XSP16 add(XSP16, 78)
        MOV       R1,#0x20
        MOV       R4,#ProjectApp_epDesc & 0xff
        MOV       R5,#(ProjectApp_epDesc >> 8) & 0xff
        MOV       A,#0x12
        LCALL     ?XSTACK_DISP101_8
        LCALL     `??AF_DataRequest::?relay`; Banked call to: AF_DataRequest
        MOV       A,#0x9
        LCALL     ?DEALLOC_XSTACK8
          CFI CFA_XSP16 add(XSP16, 69)
//  265 
//  266 //ProjectApp_SendTheMessage();
//  267 // Setup to send message again
//  268  
//  269     osal_start_timerEx( ProjectApp_TaskID,
//  270                         PROJECTAPP_SEND_MSG_EVT,
//  271                         PROJECTAPP_SEND_MSG_TIMEOUT+(osal_rand() & 0x00FF));
        ; Setup parameters for call to function osal_rand
        LCALL     `??osal_rand::?relay`; Banked call to: osal_rand
        ; Setup parameters for call to function osal_start_timerEx
        MOV       A,R2
        ADD       A,#-0x18
        MOV       R4,A
        CLR       A
        ADDC      A,#0x3
        MOV       R5,A
        MOV       R2,#0x1
        MOV       R3,#0x0
        MOV       DPTR,#ProjectApp_TaskID
        MOVX      A,@DPTR
        MOV       R1,A
        LCALL     `??osal_start_timerEx::?relay`; Banked call to: osal_start_timerEx
//  272 
//  273     // return unprocessed events
//  274     return (events ^ PROJECTAPP_SEND_MSG_EVT);
        MOV       A,R6
        XRL       A,#0x1
        MOV       R2,A
        MOV       A,R7
??ProjectApp_ProcessEvent_11:
        MOV       R3,A
        SJMP      ??ProjectApp_ProcessEvent_13
//  275   }
//  276 
//  277   
//  278 #if defined( IAR_ARMCM3_LM )
//  279   // Receive a message from the RTOS queue
//  280   if ( events & PROJECTAPP_RTOS_MSG_EVT )
//  281   {
//  282     // Process message from RTOS queue
//  283     ProjectApp_ProcessRtosMessage();
//  284 
//  285     // return unprocessed events
//  286     return (events ^ PROJECTAPP_RTOS_MSG_EVT);
//  287   }
//  288 #endif
//  289 
//  290   // Discard unknown events
//  291   return 0;
??ProjectApp_ProcessEvent_12:
        MOV       R2,#0x0
        MOV       R3,#0x0
??ProjectApp_ProcessEvent_13:
        MOV       A,#0x35
        LCALL     ?DEALLOC_XSTACK8
          CFI CFA_XSP16 add(XSP16, 16)
        MOV       R7,#0x8
        LJMP      ?BANKED_LEAVE_XDATA
//  292 }
          CFI EndBlock cfiBlock8

        RSEG BANK_RELAYS:CODE:REORDER:NOROOT(0)
`??ProjectApp_Init::?relay`:
        CODE
        LCALL   ?BDISPATCH
        DATA24
        DC24    ProjectApp_Init

        RSEG BANK_RELAYS:CODE:REORDER:NOROOT(0)
`??ProjectApp_ProcessEvent::?relay`:
        CODE
        LCALL   ?BDISPATCH
        DATA24
        DC24    ProjectApp_ProcessEvent

        RSEG XDATA_ROM_C:CONST:REORDER:NOROOT(0)
        DATA8
`?<Constant "Bind success!\\r\\n">`:
        DB "Bind success!\015\012"

        RSEG XDATA_ROM_C:CONST:REORDER:NOROOT(0)
        DATA8
`?<Constant "Bind failure!\\r\\n">`:
        DB "Bind failure!\015\012"

        RSEG XDATA_ROM_C:CONST:REORDER:NOROOT(0)
        DATA8
`?<Constant "%5.2f C\\r\\n">`:
        DB "%5.2f C\015\012"

        RSEG XDATA_ROM_C:CONST:REORDER:NOROOT(0)
        DATA8
`?<Constant "%s\\r\\n">`:
        DB "%s\015\012"

        END
//  293 
//  294 
//  295 /*********************************************************************
//  296  * @fn      ProjectApp_HandleKeys
//  297  *
//  298  * @brief   Handles all key events for this device.
//  299  *
//  300  * @param   shift - true if in shift/alt.
//  301  * @param   keys - bit field for key events. Valid entries:
//  302  *                 HAL_KEY_SW_4
//  303  *                 HAL_KEY_SW_3
//  304  *                 HAL_KEY_SW_2
//  305  *                 HAL_KEY_SW_1
//  306  *
//  307  * @return  none
//  308  */
//  309 static void ProjectApp_HandleKeys( uint8 shift, uint8 keys )
//  310 {
//  311   zAddrType_t dstAddr;
//  312 
//  313   // Shift is used to make each button/switch dual purpose.
//  314   if ( shift )
//  315   {
//  316     if ( keys & HAL_KEY_SW_1 )
//  317     {
//  318     }
//  319     if ( keys & HAL_KEY_SW_2 )
//  320     {
//  321     }
//  322     if ( keys & HAL_KEY_SW_3 )
//  323     {
//  324     }
//  325     if ( keys & HAL_KEY_SW_4 )
//  326     {
//  327     }
//  328   }
//  329   else
//  330   {
//  331     if ( keys & HAL_KEY_SW_1 )
//  332     {
//  333     }
//  334 
//  335 #if defined( SWITCH1_BIND )
//  336       // we can use SW1 to simulate SW2 for devices that only have one switch,
//  337       keys |= HAL_KEY_SW_2;
//  338 #elif defined( SWITCH1_MATCH )
//  339       // or use SW1 to simulate SW4 for devices that only have one switch
//  340       keys |= HAL_KEY_SW_4;
//  341 #endif
//  342     }
//  343 
//  344     if ( keys & HAL_KEY_SW_2 )
//  345     {
//  346       HalLedSet ( HAL_LED_4, HAL_LED_MODE_OFF );
//  347 
//  348       // Initiate an End Device Bind Request for the mandatory endpoint
//  349       dstAddr.addrMode = Addr16Bit;
//  350       dstAddr.addr.shortAddr = 0x0000; // Coordinator
//  351       ZDP_EndDeviceBindReq( &dstAddr, NLME_GetShortAddr(),
//  352                             ProjectApp_epDesc.endPoint,
//  353                             PROJECTAPP_PROFID,
//  354                             PROJECTAPP_MAX_CLUSTERS, (cId_t *)ProjectApp_ClusterList,
//  355                             PROJECTAPP_MAX_CLUSTERS, (cId_t *)ProjectApp_ClusterList,
//  356                             FALSE );
//  357     }
//  358 
//  359     if ( keys & HAL_KEY_SW_3 )
//  360     {
//  361     }
//  362 
//  363     if ( keys & HAL_KEY_SW_4 )
//  364     {
//  365       HalLedSet ( HAL_LED_4, HAL_LED_MODE_OFF );
//  366       // Initiate a Match Description Request (Service Discovery)
//  367       dstAddr.addrMode = AddrBroadcast;
//  368       dstAddr.addr.shortAddr = NWK_BROADCAST_SHORTADDR;
//  369       ZDP_MatchDescReq( &dstAddr, NWK_BROADCAST_SHORTADDR,
//  370                         PROJECTAPP_PROFID,
//  371                         PROJECTAPP_MAX_CLUSTERS, (cId_t *)ProjectApp_ClusterList,
//  372                         PROJECTAPP_MAX_CLUSTERS, (cId_t *)ProjectApp_ClusterList,
//  373                         FALSE );
//  374     }
//  375   }
//  376 
//  377 
//  378 static void ProjectApp_ProcessZDOMsgs( zdoIncomingMsg_t *inMsg )//
//  379 {
//  380   switch ( inMsg->clusterID )
//  381   {
//  382     case End_Device_Bind_rsp:
//  383       if ( ZDO_ParseBindRsp( inMsg ) == ZSuccess )
//  384       {
//  385         printf("Bind success!\r\n");
//  386         osal_start_timerEx( ProjectApp_TaskID,
//  387                             PROJECTAPP_SEND_MSG_EVT,
//  388                             PROJECTAPP_SEND_MSG_TIMEOUT );
//  389       }
//  390       else
//  391       {
//  392         printf("Bind failure!\r\n");
//  393       }
//  394       break;
//  395   }
//  396 }
//  397 
//  398 
//  399 
//  400 
//  401 static void ProjectApp_SendBindcast( void )
//  402 {
//  403   float temp = SHT2x_GetTempPoll();
//  404   char Str_Buf[32];
//  405   sprintf(Str_Buf, "%5.2f C\r\n", temp);
//  406   printf("%s\r\n",Str_Buf);
//  407 
//  408   afAddrType_t ProjectApp_DstAddr;
//  409   ProjectApp_DstAddr.addrMode       = (afAddrMode_t)AddrNotPresent;
//  410   ProjectApp_DstAddr.endPoint       = 0;
//  411   ProjectApp_DstAddr.addr.shortAddr = 0;
//  412   
//  413   AF_DataRequest( &ProjectApp_DstAddr,
//  414                   &ProjectApp_epDesc,
//  415                   PROJECTAPP_CLUSTERID,
//  416                   strlen(Str_Buf)+1,
//  417                   (uint8 *)Str_Buf,
//  418                   &ProjectApp_TransID,
//  419                   AF_DISCV_ROUTE,
//  420                   AF_DEFAULT_RADIUS
//  421                 );
//  422 }
//  423 /*********************************************************************
//  424  * LOCAL FUNCTIONS
//  425  */
//  426 
//  427 /*********************************************************************
//  428  * @fn      ProjectApp_MessageMSGCB
//  429  *
//  430  * @brief   Data message processor callback.  This function processes
//  431  *          any incoming data - probably from other devices.  So, based
//  432  *          on cluster ID, perform the intended action.
//  433  *
//  434  * @param   none
//  435  *
//  436  * @return  none
//  437  */
//  438 static void ProjectApp_MessageMSGCB( afIncomingMSGPacket_t *pkt )
//  439 {
//  440   switch ( pkt->clusterId )
//  441   {
//  442     case PROJECTAPP_CLUSTERID:
//  443       printf("%s\r\n", pkt->cmd.Data);
//  444       break;
//  445   }
//  446 }
//  447 
//  448 /*********************************************************************
//  449  * @fn      ProjectApp_SendTheMessage
//  450  *
//  451  * @brief   Send "the" message.
//  452  *
//  453  * @param   none
//  454  *
//  455  * @return  none
//  456  */
//  457 
//  458 
//  459 //static void ProjectApp_SendTheMessage( void )
//  460 //{
//  461 //  char strTemp[3];//
//  462 //  DHT11(); 
//  463 //
//  464 //  strTemp[0] = wendu_shi+0x30;
//  465 //  strTemp[1] = wendu_ge+0x30;
//  466 //  strTemp[2] = '\0';
//  467 //  
//  468 //  afAddrType_t dstAddr;
//  469 //  dstAddr.endPoint = PROJECTAPP_ENDPOINT;//
//  470 //  dstAddr.addrMode = (afAddrMode_t)Addr16Bit;
//  471 //  dstAddr.addr.shortAddr = 0x0000; // Coordinator
//  472 //
//  473 //  AF_DataRequest( &dstAddr,
//  474 //                  &ProjectApp_epDesc,// 
//  475 //                  PROJECTAPP_CLUSTERID,
//  476 //                  strlen(strTemp)+1,//'\0'
//  477 //                  (uint8 *)strTemp,//
//  478 //                  &ProjectApp_TransID,
//  479 //                  AF_DISCV_ROUTE,
//  480 //                  AF_DEFAULT_RADIUS );
//  481 //}
//  482 
//  483 #if defined( IAR_ARMCM3_LM )
//  484 /*********************************************************************
//  485  * @fn      ProjectApp_ProcessRtosMessage
//  486  *
//  487  * @brief   Receive message from RTOS queue, send response back.
//  488  *
//  489  * @param   none
//  490  *
//  491  * @return  none
//  492  */
//  493 static void ProjectApp_ProcessRtosMessage( void )
//  494 {
//  495   osalQueue_t inMsg;
//  496 
//  497   if ( osal_queue_receive( OsalQueue, &inMsg, 0 ) == pdPASS )
//  498   {
//  499     uint8 cmndId = inMsg.cmnd;
//  500     uint32 counter = osal_build_uint32( inMsg.cbuf, 4 );
//  501 
//  502     switch ( cmndId )
//  503     {
//  504       case CMD_INCR:
//  505         counter += 1;  /* Increment the incoming counter */
//  506                        /* Intentionally fall through next case */
//  507 
//  508       case CMD_ECHO:
//  509       {
//  510         userQueue_t outMsg;
//  511 
//  512         outMsg.resp = RSP_CODE | cmndId;  /* Response ID */
//  513         osal_buffer_uint32( outMsg.rbuf, counter );    /* Increment counter */
//  514         osal_queue_send( UserQueue1, &outMsg, 0 );  /* Send back to UserTask */
//  515         break;
//  516       }
//  517       
//  518       default:
//  519         break;  /* Ignore unknown command */    
//  520     }
//  521   }
//  522 }
//  523 #endif
//  524 
//  525 /*********************************************************************
//  526  */
// 
// 769 bytes in segment BANKED_CODE
//  12 bytes in segment BANK_RELAYS
//  61 bytes in segment XDATA_ROM_C
//  21 bytes in segment XDATA_Z
// 
//  12 bytes of CODE     memory
//  61 bytes of CONST    memory
// 769 bytes of HUGECODE memory
//  21 bytes of XDATA    memory
//
//Errors: none
//Warnings: none
